ctarget:     file format elf64-x86-64


Disassembly of section .init:

0000000000400bc8 <_init>:
  400bc8:	48 83 ec 08          	sub    $0x8,%rsp
  400bcc:	48 8b 05 25 34 20 00 	mov    0x203425(%rip),%rax        # 603ff8 <_DYNAMIC+0x1d0>
  400bd3:	48 85 c0             	test   %rax,%rax
  400bd6:	74 05                	je     400bdd <_init+0x15>
  400bd8:	e8 33 01 00 00       	callq  400d10 <__gmon_start__@plt>
  400bdd:	48 83 c4 08          	add    $0x8,%rsp
  400be1:	c3                   	retq   

Disassembly of section .plt:

0000000000400bf0 <strcasecmp@plt-0x10>:
  400bf0:	ff 35 12 34 20 00    	pushq  0x203412(%rip)        # 604008 <_GLOBAL_OFFSET_TABLE_+0x8>
  400bf6:	ff 25 14 34 20 00    	jmpq   *0x203414(%rip)        # 604010 <_GLOBAL_OFFSET_TABLE_+0x10>
  400bfc:	0f 1f 40 00          	nopl   0x0(%rax)

0000000000400c00 <strcasecmp@plt>:
  400c00:	ff 25 12 34 20 00    	jmpq   *0x203412(%rip)        # 604018 <_GLOBAL_OFFSET_TABLE_+0x18>
  400c06:	68 00 00 00 00       	pushq  $0x0
  400c0b:	e9 e0 ff ff ff       	jmpq   400bf0 <_init+0x28>

0000000000400c10 <__errno_location@plt>:
  400c10:	ff 25 0a 34 20 00    	jmpq   *0x20340a(%rip)        # 604020 <_GLOBAL_OFFSET_TABLE_+0x20>
  400c16:	68 01 00 00 00       	pushq  $0x1
  400c1b:	e9 d0 ff ff ff       	jmpq   400bf0 <_init+0x28>

0000000000400c20 <srandom@plt>:
  400c20:	ff 25 02 34 20 00    	jmpq   *0x203402(%rip)        # 604028 <_GLOBAL_OFFSET_TABLE_+0x28>
  400c26:	68 02 00 00 00       	pushq  $0x2
  400c2b:	e9 c0 ff ff ff       	jmpq   400bf0 <_init+0x28>

0000000000400c30 <strncmp@plt>:
  400c30:	ff 25 fa 33 20 00    	jmpq   *0x2033fa(%rip)        # 604030 <_GLOBAL_OFFSET_TABLE_+0x30>
  400c36:	68 03 00 00 00       	pushq  $0x3
  400c3b:	e9 b0 ff ff ff       	jmpq   400bf0 <_init+0x28>

0000000000400c40 <strcpy@plt>:
  400c40:	ff 25 f2 33 20 00    	jmpq   *0x2033f2(%rip)        # 604038 <_GLOBAL_OFFSET_TABLE_+0x38>
  400c46:	68 04 00 00 00       	pushq  $0x4
  400c4b:	e9 a0 ff ff ff       	jmpq   400bf0 <_init+0x28>

0000000000400c50 <puts@plt>:
  400c50:	ff 25 ea 33 20 00    	jmpq   *0x2033ea(%rip)        # 604040 <_GLOBAL_OFFSET_TABLE_+0x40>
  400c56:	68 05 00 00 00       	pushq  $0x5
  400c5b:	e9 90 ff ff ff       	jmpq   400bf0 <_init+0x28>

0000000000400c60 <write@plt>:
  400c60:	ff 25 e2 33 20 00    	jmpq   *0x2033e2(%rip)        # 604048 <_GLOBAL_OFFSET_TABLE_+0x48>
  400c66:	68 06 00 00 00       	pushq  $0x6
  400c6b:	e9 80 ff ff ff       	jmpq   400bf0 <_init+0x28>

0000000000400c70 <mmap@plt>:
  400c70:	ff 25 da 33 20 00    	jmpq   *0x2033da(%rip)        # 604050 <_GLOBAL_OFFSET_TABLE_+0x50>
  400c76:	68 07 00 00 00       	pushq  $0x7
  400c7b:	e9 70 ff ff ff       	jmpq   400bf0 <_init+0x28>

0000000000400c80 <printf@plt>:
  400c80:	ff 25 d2 33 20 00    	jmpq   *0x2033d2(%rip)        # 604058 <_GLOBAL_OFFSET_TABLE_+0x58>
  400c86:	68 08 00 00 00       	pushq  $0x8
  400c8b:	e9 60 ff ff ff       	jmpq   400bf0 <_init+0x28>

0000000000400c90 <memset@plt>:
  400c90:	ff 25 ca 33 20 00    	jmpq   *0x2033ca(%rip)        # 604060 <_GLOBAL_OFFSET_TABLE_+0x60>
  400c96:	68 09 00 00 00       	pushq  $0x9
  400c9b:	e9 50 ff ff ff       	jmpq   400bf0 <_init+0x28>

0000000000400ca0 <alarm@plt>:
  400ca0:	ff 25 c2 33 20 00    	jmpq   *0x2033c2(%rip)        # 604068 <_GLOBAL_OFFSET_TABLE_+0x68>
  400ca6:	68 0a 00 00 00       	pushq  $0xa
  400cab:	e9 40 ff ff ff       	jmpq   400bf0 <_init+0x28>

0000000000400cb0 <close@plt>:
  400cb0:	ff 25 ba 33 20 00    	jmpq   *0x2033ba(%rip)        # 604070 <_GLOBAL_OFFSET_TABLE_+0x70>
  400cb6:	68 0b 00 00 00       	pushq  $0xb
  400cbb:	e9 30 ff ff ff       	jmpq   400bf0 <_init+0x28>

0000000000400cc0 <read@plt>:
  400cc0:	ff 25 b2 33 20 00    	jmpq   *0x2033b2(%rip)        # 604078 <_GLOBAL_OFFSET_TABLE_+0x78>
  400cc6:	68 0c 00 00 00       	pushq  $0xc
  400ccb:	e9 20 ff ff ff       	jmpq   400bf0 <_init+0x28>

0000000000400cd0 <__libc_start_main@plt>:
  400cd0:	ff 25 aa 33 20 00    	jmpq   *0x2033aa(%rip)        # 604080 <_GLOBAL_OFFSET_TABLE_+0x80>
  400cd6:	68 0d 00 00 00       	pushq  $0xd
  400cdb:	e9 10 ff ff ff       	jmpq   400bf0 <_init+0x28>

0000000000400ce0 <signal@plt>:
  400ce0:	ff 25 a2 33 20 00    	jmpq   *0x2033a2(%rip)        # 604088 <_GLOBAL_OFFSET_TABLE_+0x88>
  400ce6:	68 0e 00 00 00       	pushq  $0xe
  400ceb:	e9 00 ff ff ff       	jmpq   400bf0 <_init+0x28>

0000000000400cf0 <gethostbyname@plt>:
  400cf0:	ff 25 9a 33 20 00    	jmpq   *0x20339a(%rip)        # 604090 <_GLOBAL_OFFSET_TABLE_+0x90>
  400cf6:	68 0f 00 00 00       	pushq  $0xf
  400cfb:	e9 f0 fe ff ff       	jmpq   400bf0 <_init+0x28>

0000000000400d00 <fprintf@plt>:
  400d00:	ff 25 92 33 20 00    	jmpq   *0x203392(%rip)        # 604098 <_GLOBAL_OFFSET_TABLE_+0x98>
  400d06:	68 10 00 00 00       	pushq  $0x10
  400d0b:	e9 e0 fe ff ff       	jmpq   400bf0 <_init+0x28>

0000000000400d10 <__gmon_start__@plt>:
  400d10:	ff 25 8a 33 20 00    	jmpq   *0x20338a(%rip)        # 6040a0 <_GLOBAL_OFFSET_TABLE_+0xa0>
  400d16:	68 11 00 00 00       	pushq  $0x11
  400d1b:	e9 d0 fe ff ff       	jmpq   400bf0 <_init+0x28>

0000000000400d20 <strtol@plt>:
  400d20:	ff 25 82 33 20 00    	jmpq   *0x203382(%rip)        # 6040a8 <_GLOBAL_OFFSET_TABLE_+0xa8>
  400d26:	68 12 00 00 00       	pushq  $0x12
  400d2b:	e9 c0 fe ff ff       	jmpq   400bf0 <_init+0x28>

0000000000400d30 <memcpy@plt>:
  400d30:	ff 25 7a 33 20 00    	jmpq   *0x20337a(%rip)        # 6040b0 <_GLOBAL_OFFSET_TABLE_+0xb0>
  400d36:	68 13 00 00 00       	pushq  $0x13
  400d3b:	e9 b0 fe ff ff       	jmpq   400bf0 <_init+0x28>

0000000000400d40 <time@plt>:
  400d40:	ff 25 72 33 20 00    	jmpq   *0x203372(%rip)        # 6040b8 <_GLOBAL_OFFSET_TABLE_+0xb8>
  400d46:	68 14 00 00 00       	pushq  $0x14
  400d4b:	e9 a0 fe ff ff       	jmpq   400bf0 <_init+0x28>

0000000000400d50 <random@plt>:
  400d50:	ff 25 6a 33 20 00    	jmpq   *0x20336a(%rip)        # 6040c0 <_GLOBAL_OFFSET_TABLE_+0xc0>
  400d56:	68 15 00 00 00       	pushq  $0x15
  400d5b:	e9 90 fe ff ff       	jmpq   400bf0 <_init+0x28>

0000000000400d60 <_IO_getc@plt>:
  400d60:	ff 25 62 33 20 00    	jmpq   *0x203362(%rip)        # 6040c8 <_GLOBAL_OFFSET_TABLE_+0xc8>
  400d66:	68 16 00 00 00       	pushq  $0x16
  400d6b:	e9 80 fe ff ff       	jmpq   400bf0 <_init+0x28>

0000000000400d70 <__isoc99_sscanf@plt>:
  400d70:	ff 25 5a 33 20 00    	jmpq   *0x20335a(%rip)        # 6040d0 <_GLOBAL_OFFSET_TABLE_+0xd0>
  400d76:	68 17 00 00 00       	pushq  $0x17
  400d7b:	e9 70 fe ff ff       	jmpq   400bf0 <_init+0x28>

0000000000400d80 <munmap@plt>:
  400d80:	ff 25 52 33 20 00    	jmpq   *0x203352(%rip)        # 6040d8 <_GLOBAL_OFFSET_TABLE_+0xd8>
  400d86:	68 18 00 00 00       	pushq  $0x18
  400d8b:	e9 60 fe ff ff       	jmpq   400bf0 <_init+0x28>

0000000000400d90 <bcopy@plt>:
  400d90:	ff 25 4a 33 20 00    	jmpq   *0x20334a(%rip)        # 6040e0 <_GLOBAL_OFFSET_TABLE_+0xe0>
  400d96:	68 19 00 00 00       	pushq  $0x19
  400d9b:	e9 50 fe ff ff       	jmpq   400bf0 <_init+0x28>

0000000000400da0 <fopen@plt>:
  400da0:	ff 25 42 33 20 00    	jmpq   *0x203342(%rip)        # 6040e8 <_GLOBAL_OFFSET_TABLE_+0xe8>
  400da6:	68 1a 00 00 00       	pushq  $0x1a
  400dab:	e9 40 fe ff ff       	jmpq   400bf0 <_init+0x28>

0000000000400db0 <getopt@plt>:
  400db0:	ff 25 3a 33 20 00    	jmpq   *0x20333a(%rip)        # 6040f0 <_GLOBAL_OFFSET_TABLE_+0xf0>
  400db6:	68 1b 00 00 00       	pushq  $0x1b
  400dbb:	e9 30 fe ff ff       	jmpq   400bf0 <_init+0x28>

0000000000400dc0 <strtoul@plt>:
  400dc0:	ff 25 32 33 20 00    	jmpq   *0x203332(%rip)        # 6040f8 <_GLOBAL_OFFSET_TABLE_+0xf8>
  400dc6:	68 1c 00 00 00       	pushq  $0x1c
  400dcb:	e9 20 fe ff ff       	jmpq   400bf0 <_init+0x28>

0000000000400dd0 <gethostname@plt>:
  400dd0:	ff 25 2a 33 20 00    	jmpq   *0x20332a(%rip)        # 604100 <_GLOBAL_OFFSET_TABLE_+0x100>
  400dd6:	68 1d 00 00 00       	pushq  $0x1d
  400ddb:	e9 10 fe ff ff       	jmpq   400bf0 <_init+0x28>

0000000000400de0 <sprintf@plt>:
  400de0:	ff 25 22 33 20 00    	jmpq   *0x203322(%rip)        # 604108 <_GLOBAL_OFFSET_TABLE_+0x108>
  400de6:	68 1e 00 00 00       	pushq  $0x1e
  400deb:	e9 00 fe ff ff       	jmpq   400bf0 <_init+0x28>

0000000000400df0 <exit@plt>:
  400df0:	ff 25 1a 33 20 00    	jmpq   *0x20331a(%rip)        # 604110 <_GLOBAL_OFFSET_TABLE_+0x110>
  400df6:	68 1f 00 00 00       	pushq  $0x1f
  400dfb:	e9 f0 fd ff ff       	jmpq   400bf0 <_init+0x28>

0000000000400e00 <connect@plt>:
  400e00:	ff 25 12 33 20 00    	jmpq   *0x203312(%rip)        # 604118 <_GLOBAL_OFFSET_TABLE_+0x118>
  400e06:	68 20 00 00 00       	pushq  $0x20
  400e0b:	e9 e0 fd ff ff       	jmpq   400bf0 <_init+0x28>

0000000000400e10 <socket@plt>:
  400e10:	ff 25 0a 33 20 00    	jmpq   *0x20330a(%rip)        # 604120 <_GLOBAL_OFFSET_TABLE_+0x120>
  400e16:	68 21 00 00 00       	pushq  $0x21
  400e1b:	e9 d0 fd ff ff       	jmpq   400bf0 <_init+0x28>

Disassembly of section .text:

0000000000400e20 <_start>:
  400e20:	31 ed                	xor    %ebp,%ebp
  400e22:	49 89 d1             	mov    %rdx,%r9
  400e25:	5e                   	pop    %rsi
  400e26:	48 89 e2             	mov    %rsp,%rdx
  400e29:	48 83 e4 f0          	and    $0xfffffffffffffff0,%rsp
  400e2d:	50                   	push   %rax
  400e2e:	54                   	push   %rsp
  400e2f:	49 c7 c0 60 2b 40 00 	mov    $0x402b60,%r8
  400e36:	48 c7 c1 f0 2a 40 00 	mov    $0x402af0,%rcx
  400e3d:	48 c7 c7 e0 10 40 00 	mov    $0x4010e0,%rdi
  400e44:	e8 87 fe ff ff       	callq  400cd0 <__libc_start_main@plt>
  400e49:	f4                   	hlt    
  400e4a:	66 90                	xchg   %ax,%ax
  400e4c:	0f 1f 40 00          	nopl   0x0(%rax)

0000000000400e50 <deregister_tm_clones>:
  400e50:	b8 b7 44 60 00       	mov    $0x6044b7,%eax
  400e55:	55                   	push   %rbp
  400e56:	48 2d b0 44 60 00    	sub    $0x6044b0,%rax
  400e5c:	48 83 f8 0e          	cmp    $0xe,%rax
  400e60:	48 89 e5             	mov    %rsp,%rbp
  400e63:	77 02                	ja     400e67 <deregister_tm_clones+0x17>
  400e65:	5d                   	pop    %rbp
  400e66:	c3                   	retq   
  400e67:	b8 00 00 00 00       	mov    $0x0,%eax
  400e6c:	48 85 c0             	test   %rax,%rax
  400e6f:	74 f4                	je     400e65 <deregister_tm_clones+0x15>
  400e71:	5d                   	pop    %rbp
  400e72:	bf b0 44 60 00       	mov    $0x6044b0,%edi
  400e77:	ff e0                	jmpq   *%rax
  400e79:	0f 1f 80 00 00 00 00 	nopl   0x0(%rax)

0000000000400e80 <register_tm_clones>:
  400e80:	b8 b0 44 60 00       	mov    $0x6044b0,%eax
  400e85:	55                   	push   %rbp
  400e86:	48 2d b0 44 60 00    	sub    $0x6044b0,%rax
  400e8c:	48 c1 f8 03          	sar    $0x3,%rax
  400e90:	48 89 e5             	mov    %rsp,%rbp
  400e93:	48 89 c2             	mov    %rax,%rdx
  400e96:	48 c1 ea 3f          	shr    $0x3f,%rdx
  400e9a:	48 01 d0             	add    %rdx,%rax
  400e9d:	48 d1 f8             	sar    %rax
  400ea0:	75 02                	jne    400ea4 <register_tm_clones+0x24>
  400ea2:	5d                   	pop    %rbp
  400ea3:	c3                   	retq   
  400ea4:	ba 00 00 00 00       	mov    $0x0,%edx
  400ea9:	48 85 d2             	test   %rdx,%rdx
  400eac:	74 f4                	je     400ea2 <register_tm_clones+0x22>
  400eae:	5d                   	pop    %rbp
  400eaf:	48 89 c6             	mov    %rax,%rsi
  400eb2:	bf b0 44 60 00       	mov    $0x6044b0,%edi
  400eb7:	ff e2                	jmpq   *%rdx
  400eb9:	0f 1f 80 00 00 00 00 	nopl   0x0(%rax)

0000000000400ec0 <__do_global_dtors_aux>:
  400ec0:	80 3d 11 36 20 00 00 	cmpb   $0x0,0x203611(%rip)        # 6044d8 <completed.6342>
  400ec7:	75 11                	jne    400eda <__do_global_dtors_aux+0x1a>
  400ec9:	55                   	push   %rbp
  400eca:	48 89 e5             	mov    %rsp,%rbp
  400ecd:	e8 7e ff ff ff       	callq  400e50 <deregister_tm_clones>
  400ed2:	5d                   	pop    %rbp
  400ed3:	c6 05 fe 35 20 00 01 	movb   $0x1,0x2035fe(%rip)        # 6044d8 <completed.6342>
  400eda:	f3 c3                	repz retq 
  400edc:	0f 1f 40 00          	nopl   0x0(%rax)

0000000000400ee0 <frame_dummy>:
  400ee0:	48 83 3d 38 2f 20 00 	cmpq   $0x0,0x202f38(%rip)        # 603e20 <__JCR_END__>
  400ee7:	00 
  400ee8:	74 1e                	je     400f08 <frame_dummy+0x28>
  400eea:	b8 00 00 00 00       	mov    $0x0,%eax
  400eef:	48 85 c0             	test   %rax,%rax
  400ef2:	74 14                	je     400f08 <frame_dummy+0x28>
  400ef4:	55                   	push   %rbp
  400ef5:	bf 20 3e 60 00       	mov    $0x603e20,%edi
  400efa:	48 89 e5             	mov    %rsp,%rbp
  400efd:	ff d0                	callq  *%rax
  400eff:	5d                   	pop    %rbp
  400f00:	e9 7b ff ff ff       	jmpq   400e80 <register_tm_clones>
  400f05:	0f 1f 00             	nopl   (%rax)
  400f08:	e9 73 ff ff ff       	jmpq   400e80 <register_tm_clones>
  400f0d:	0f 1f 00             	nopl   (%rax)

0000000000400f10 <usage>:
  400f10:	48 83 ec 08          	sub    $0x8,%rsp
  400f14:	48 89 fe             	mov    %rdi,%rsi
  400f17:	83 3d ea 35 20 00 00 	cmpl   $0x0,0x2035ea(%rip)        # 604508 <is_checker>
  400f1e:	74 39                	je     400f59 <usage+0x49>
  400f20:	bf 80 2b 40 00       	mov    $0x402b80,%edi
  400f25:	b8 00 00 00 00       	mov    $0x0,%eax
  400f2a:	e8 51 fd ff ff       	callq  400c80 <printf@plt>
  400f2f:	bf b8 2b 40 00       	mov    $0x402bb8,%edi
  400f34:	e8 17 fd ff ff       	callq  400c50 <puts@plt>
  400f39:	bf 30 2d 40 00       	mov    $0x402d30,%edi
  400f3e:	e8 0d fd ff ff       	callq  400c50 <puts@plt>
  400f43:	bf e0 2b 40 00       	mov    $0x402be0,%edi
  400f48:	e8 03 fd ff ff       	callq  400c50 <puts@plt>
  400f4d:	bf 4a 2d 40 00       	mov    $0x402d4a,%edi
  400f52:	e8 f9 fc ff ff       	callq  400c50 <puts@plt>
  400f57:	eb 2d                	jmp    400f86 <usage+0x76>
  400f59:	bf 66 2d 40 00       	mov    $0x402d66,%edi
  400f5e:	b8 00 00 00 00       	mov    $0x0,%eax
  400f63:	e8 18 fd ff ff       	callq  400c80 <printf@plt>
  400f68:	bf 08 2c 40 00       	mov    $0x402c08,%edi
  400f6d:	e8 de fc ff ff       	callq  400c50 <puts@plt>
  400f72:	bf 30 2c 40 00       	mov    $0x402c30,%edi
  400f77:	e8 d4 fc ff ff       	callq  400c50 <puts@plt>
  400f7c:	bf 84 2d 40 00       	mov    $0x402d84,%edi
  400f81:	e8 ca fc ff ff       	callq  400c50 <puts@plt>
  400f86:	bf 00 00 00 00       	mov    $0x0,%edi
  400f8b:	e8 60 fe ff ff       	callq  400df0 <exit@plt>

0000000000400f90 <initialize_target>:
  400f90:	55                   	push   %rbp
  400f91:	53                   	push   %rbx
  400f92:	48 81 ec 08 21 00 00 	sub    $0x2108,%rsp
  400f99:	89 f5                	mov    %esi,%ebp
  400f9b:	89 3d 57 35 20 00    	mov    %edi,0x203557(%rip)        # 6044f8 <check_level>
  400fa1:	8b 3d c1 31 20 00    	mov    0x2031c1(%rip),%edi        # 604168 <target_id>
  400fa7:	e8 1a 1b 00 00       	callq  402ac6 <gencookie>
  400fac:	89 05 52 35 20 00    	mov    %eax,0x203552(%rip)        # 604504 <cookie>
  400fb2:	89 c7                	mov    %eax,%edi
  400fb4:	e8 0d 1b 00 00       	callq  402ac6 <gencookie>
  400fb9:	89 05 41 35 20 00    	mov    %eax,0x203541(%rip)        # 604500 <authkey>
  400fbf:	8b 05 a3 31 20 00    	mov    0x2031a3(%rip),%eax        # 604168 <target_id>
  400fc5:	8d 78 01             	lea    0x1(%rax),%edi
  400fc8:	e8 53 fc ff ff       	callq  400c20 <srandom@plt>
  400fcd:	e8 7e fd ff ff       	callq  400d50 <random@plt>
  400fd2:	89 c7                	mov    %eax,%edi
  400fd4:	e8 cb 02 00 00       	callq  4012a4 <scramble>
  400fd9:	89 c3                	mov    %eax,%ebx
  400fdb:	85 ed                	test   %ebp,%ebp
  400fdd:	74 18                	je     400ff7 <initialize_target+0x67>
  400fdf:	bf 00 00 00 00       	mov    $0x0,%edi
  400fe4:	e8 57 fd ff ff       	callq  400d40 <time@plt>
  400fe9:	89 c7                	mov    %eax,%edi
  400feb:	e8 30 fc ff ff       	callq  400c20 <srandom@plt>
  400ff0:	e8 5b fd ff ff       	callq  400d50 <random@plt>
  400ff5:	eb 05                	jmp    400ffc <initialize_target+0x6c>
  400ff7:	b8 00 00 00 00       	mov    $0x0,%eax
  400ffc:	01 c3                	add    %eax,%ebx
  400ffe:	0f b7 db             	movzwl %bx,%ebx
  401001:	8d 04 dd 00 01 00 00 	lea    0x100(,%rbx,8),%eax
  401008:	89 c0                	mov    %eax,%eax
  40100a:	48 89 05 8f 34 20 00 	mov    %rax,0x20348f(%rip)        # 6044a0 <buf_offset>
  401011:	c6 05 10 41 20 00 63 	movb   $0x63,0x204110(%rip)        # 605128 <target_prefix>
  401018:	83 3d 89 34 20 00 00 	cmpl   $0x0,0x203489(%rip)        # 6044a8 <notify>
  40101f:	0f 84 b1 00 00 00    	je     4010d6 <initialize_target+0x146>
  401025:	83 3d dc 34 20 00 00 	cmpl   $0x0,0x2034dc(%rip)        # 604508 <is_checker>
  40102c:	0f 85 a4 00 00 00    	jne    4010d6 <initialize_target+0x146>
  401032:	be 00 01 00 00       	mov    $0x100,%esi
  401037:	48 89 e7             	mov    %rsp,%rdi
  40103a:	e8 91 fd ff ff       	callq  400dd0 <gethostname@plt>
  40103f:	85 c0                	test   %eax,%eax
  401041:	74 25                	je     401068 <initialize_target+0xd8>
  401043:	bf 60 2c 40 00       	mov    $0x402c60,%edi
  401048:	e8 03 fc ff ff       	callq  400c50 <puts@plt>
  40104d:	bf 08 00 00 00       	mov    $0x8,%edi
  401052:	e8 99 fd ff ff       	callq  400df0 <exit@plt>
  401057:	48 89 e6             	mov    %rsp,%rsi
  40105a:	e8 a1 fb ff ff       	callq  400c00 <strcasecmp@plt>
  40105f:	85 c0                	test   %eax,%eax
  401061:	74 21                	je     401084 <initialize_target+0xf4>
  401063:	83 c3 01             	add    $0x1,%ebx
  401066:	eb 05                	jmp    40106d <initialize_target+0xdd>
  401068:	bb 00 00 00 00       	mov    $0x0,%ebx
  40106d:	48 63 c3             	movslq %ebx,%rax
  401070:	48 8b 3c c5 80 41 60 	mov    0x604180(,%rax,8),%rdi
  401077:	00 
  401078:	48 85 ff             	test   %rdi,%rdi
  40107b:	75 da                	jne    401057 <initialize_target+0xc7>
  40107d:	b8 00 00 00 00       	mov    $0x0,%eax
  401082:	eb 05                	jmp    401089 <initialize_target+0xf9>
  401084:	b8 01 00 00 00       	mov    $0x1,%eax
  401089:	85 c0                	test   %eax,%eax
  40108b:	75 17                	jne    4010a4 <initialize_target+0x114>
  40108d:	48 89 e6             	mov    %rsp,%rsi
  401090:	bf 98 2c 40 00       	mov    $0x402c98,%edi
  401095:	e8 e6 fb ff ff       	callq  400c80 <printf@plt>
  40109a:	bf 08 00 00 00       	mov    $0x8,%edi
  40109f:	e8 4c fd ff ff       	callq  400df0 <exit@plt>
  4010a4:	48 8d bc 24 00 01 00 	lea    0x100(%rsp),%rdi
  4010ab:	00 
  4010ac:	e8 a9 17 00 00       	callq  40285a <init_driver>
  4010b1:	85 c0                	test   %eax,%eax
  4010b3:	79 21                	jns    4010d6 <initialize_target+0x146>
  4010b5:	48 8d b4 24 00 01 00 	lea    0x100(%rsp),%rsi
  4010bc:	00 
  4010bd:	bf d8 2c 40 00       	mov    $0x402cd8,%edi
  4010c2:	b8 00 00 00 00       	mov    $0x0,%eax
  4010c7:	e8 b4 fb ff ff       	callq  400c80 <printf@plt>
  4010cc:	bf 08 00 00 00       	mov    $0x8,%edi
  4010d1:	e8 1a fd ff ff       	callq  400df0 <exit@plt>
  4010d6:	48 81 c4 08 21 00 00 	add    $0x2108,%rsp
  4010dd:	5b                   	pop    %rbx
  4010de:	5d                   	pop    %rbp
  4010df:	c3                   	retq   

00000000004010e0 <main>:
  4010e0:	41 56                	push   %r14
  4010e2:	41 55                	push   %r13
  4010e4:	41 54                	push   %r12
  4010e6:	55                   	push   %rbp
  4010e7:	53                   	push   %rbx
  4010e8:	41 89 fc             	mov    %edi,%r12d
  4010eb:	48 89 f3             	mov    %rsi,%rbx
  4010ee:	be 81 1c 40 00       	mov    $0x401c81,%esi
  4010f3:	bf 0b 00 00 00       	mov    $0xb,%edi
  4010f8:	e8 e3 fb ff ff       	callq  400ce0 <signal@plt>
  4010fd:	be 33 1c 40 00       	mov    $0x401c33,%esi
  401102:	bf 07 00 00 00       	mov    $0x7,%edi
  401107:	e8 d4 fb ff ff       	callq  400ce0 <signal@plt>
  40110c:	be cf 1c 40 00       	mov    $0x401ccf,%esi
  401111:	bf 04 00 00 00       	mov    $0x4,%edi
  401116:	e8 c5 fb ff ff       	callq  400ce0 <signal@plt>
  40111b:	83 3d e6 33 20 00 00 	cmpl   $0x0,0x2033e6(%rip)        # 604508 <is_checker>
  401122:	74 20                	je     401144 <main+0x64>
  401124:	be 1d 1d 40 00       	mov    $0x401d1d,%esi
  401129:	bf 0e 00 00 00       	mov    $0xe,%edi
  40112e:	e8 ad fb ff ff       	callq  400ce0 <signal@plt>
  401133:	bf 05 00 00 00       	mov    $0x5,%edi
  401138:	e8 63 fb ff ff       	callq  400ca0 <alarm@plt>
  40113d:	bd a2 2d 40 00       	mov    $0x402da2,%ebp
  401142:	eb 05                	jmp    401149 <main+0x69>
  401144:	bd 9d 2d 40 00       	mov    $0x402d9d,%ebp
  401149:	48 8b 05 70 33 20 00 	mov    0x203370(%rip),%rax        # 6044c0 <stdin@@GLIBC_2.2.5>
  401150:	48 89 05 99 33 20 00 	mov    %rax,0x203399(%rip)        # 6044f0 <infile>
  401157:	41 bd 00 00 00 00    	mov    $0x0,%r13d
  40115d:	41 be 00 00 00 00    	mov    $0x0,%r14d
  401163:	e9 b9 00 00 00       	jmpq   401221 <main+0x141>
  401168:	83 e8 61             	sub    $0x61,%eax
  40116b:	3c 10                	cmp    $0x10,%al
  40116d:	0f 87 93 00 00 00    	ja     401206 <main+0x126>
  401173:	0f b6 c0             	movzbl %al,%eax
  401176:	ff 24 c5 e8 2d 40 00 	jmpq   *0x402de8(,%rax,8)
  40117d:	48 8b 3b             	mov    (%rbx),%rdi
  401180:	e8 8b fd ff ff       	callq  400f10 <usage>
  401185:	be 7d 30 40 00       	mov    $0x40307d,%esi
  40118a:	48 8b 3d 37 33 20 00 	mov    0x203337(%rip),%rdi        # 6044c8 <optarg@@GLIBC_2.2.5>
  401191:	e8 0a fc ff ff       	callq  400da0 <fopen@plt>
  401196:	48 89 05 53 33 20 00 	mov    %rax,0x203353(%rip)        # 6044f0 <infile>
  40119d:	48 85 c0             	test   %rax,%rax                                                            *** CALL TO TEST ***
  4011a0:	75 7f                	jne    401221 <main+0x141>
  4011a2:	48 8b 15 1f 33 20 00 	mov    0x20331f(%rip),%rdx        # 6044c8 <optarg@@GLIBC_2.2.5>
  4011a9:	be aa 2d 40 00       	mov    $0x402daa,%esi
  4011ae:	48 8b 3d 1b 33 20 00 	mov    0x20331b(%rip),%rdi        # 6044d0 <stderr@@GLIBC_2.2.5>
  4011b5:	e8 46 fb ff ff       	callq  400d00 <fprintf@plt>
  4011ba:	b8 01 00 00 00       	mov    $0x1,%eax
  4011bf:	e9 d6 00 00 00       	jmpq   40129a <main+0x1ba>
  4011c4:	ba 10 00 00 00       	mov    $0x10,%edx
  4011c9:	be 00 00 00 00       	mov    $0x0,%esi
  4011ce:	48 8b 3d f3 32 20 00 	mov    0x2032f3(%rip),%rdi        # 6044c8 <optarg@@GLIBC_2.2.5>
  4011d5:	e8 e6 fb ff ff       	callq  400dc0 <strtoul@plt>
  4011da:	41 89 c6             	mov    %eax,%r14d
  4011dd:	eb 42                	jmp    401221 <main+0x141>
  4011df:	ba 0a 00 00 00       	mov    $0xa,%edx
  4011e4:	be 00 00 00 00       	mov    $0x0,%esi
  4011e9:	48 8b 3d d8 32 20 00 	mov    0x2032d8(%rip),%rdi        # 6044c8 <optarg@@GLIBC_2.2.5>
  4011f0:	e8 2b fb ff ff       	callq  400d20 <strtol@plt>
  4011f5:	41 89 c5             	mov    %eax,%r13d
  4011f8:	eb 27                	jmp    401221 <main+0x141>
  4011fa:	c7 05 a4 32 20 00 00 	movl   $0x0,0x2032a4(%rip)        # 6044a8 <notify>
  401201:	00 00 00 
  401204:	eb 1b                	jmp    401221 <main+0x141>
  401206:	40 0f be f6          	movsbl %sil,%esi
  40120a:	bf c7 2d 40 00       	mov    $0x402dc7,%edi
  40120f:	b8 00 00 00 00       	mov    $0x0,%eax
  401214:	e8 67 fa ff ff       	callq  400c80 <printf@plt>
  401219:	48 8b 3b             	mov    (%rbx),%rdi
  40121c:	e8 ef fc ff ff       	callq  400f10 <usage>
  401221:	48 89 ea             	mov    %rbp,%rdx
  401224:	48 89 de             	mov    %rbx,%rsi
  401227:	44 89 e7             	mov    %r12d,%edi
  40122a:	e8 81 fb ff ff       	callq  400db0 <getopt@plt>
  40122f:	89 c6                	mov    %eax,%esi
  401231:	3c ff                	cmp    $0xff,%al
  401233:	0f 85 2f ff ff ff    	jne    401168 <main+0x88>
  401239:	be 00 00 00 00       	mov    $0x0,%esi
  40123e:	44 89 ef             	mov    %r13d,%edi
  401241:	e8 4a fd ff ff       	callq  400f90 <initialize_target>
  401246:	83 3d bb 32 20 00 00 	cmpl   $0x0,0x2032bb(%rip)        # 604508 <is_checker>
  40124d:	74 25                	je     401274 <main+0x194>
  40124f:	44 3b 35 aa 32 20 00 	cmp    0x2032aa(%rip),%r14d        # 604500 <authkey>
  401256:	74 1c                	je     401274 <main+0x194>
  401258:	44 89 f6             	mov    %r14d,%esi
  40125b:	bf 00 2d 40 00       	mov    $0x402d00,%edi
  401260:	b8 00 00 00 00       	mov    $0x0,%eax
  401265:	e8 16 fa ff ff       	callq  400c80 <printf@plt>
  40126a:	b8 00 00 00 00       	mov    $0x0,%eax
  40126f:	e8 c7 06 00 00       	callq  40193b <check_fail>
  401274:	8b 35 8a 32 20 00    	mov    0x20328a(%rip),%esi        # 604504 <cookie>
  40127a:	bf da 2d 40 00       	mov    $0x402dda,%edi
  40127f:	b8 00 00 00 00       	mov    $0x0,%eax
  401284:	e8 f7 f9 ff ff       	callq  400c80 <printf@plt>
  401289:	48 8b 3d 10 32 20 00 	mov    0x203210(%rip),%rdi        # 6044a0 <buf_offset>
  401290:	e8 57 0b 00 00       	callq  401dec <stable_launch>
  401295:	b8 00 00 00 00       	mov    $0x0,%eax
  40129a:	5b                   	pop    %rbx
  40129b:	5d                   	pop    %rbp
  40129c:	41 5c                	pop    %r12
  40129e:	41 5d                	pop    %r13
  4012a0:	41 5e                	pop    %r14
  4012a2:	c3                   	retq   
  4012a3:	90                   	nop

00000000004012a4 <scramble>:
  4012a4:	b8 00 00 00 00       	mov    $0x0,%eax
  4012a9:	eb 11                	jmp    4012bc <scramble+0x18>
  4012ab:	69 c8 24 a6 00 00    	imul   $0xa624,%eax,%ecx
  4012b1:	01 f9                	add    %edi,%ecx
  4012b3:	89 c2                	mov    %eax,%edx
  4012b5:	89 4c 94 d0          	mov    %ecx,-0x30(%rsp,%rdx,4)
  4012b9:	83 c0 01             	add    $0x1,%eax
  4012bc:	83 f8 09             	cmp    $0x9,%eax
  4012bf:	76 ea                	jbe    4012ab <scramble+0x7>
  4012c1:	8b 44 24 f0          	mov    -0x10(%rsp),%eax
  4012c5:	69 c0 fd 44 00 00    	imul   $0x44fd,%eax,%eax
  4012cb:	89 44 24 f0          	mov    %eax,-0x10(%rsp)
  4012cf:	8b 44 24 e4          	mov    -0x1c(%rsp),%eax
  4012d3:	69 c0 08 e3 00 00    	imul   $0xe308,%eax,%eax
  4012d9:	89 44 24 e4          	mov    %eax,-0x1c(%rsp)
  4012dd:	8b 44 24 dc          	mov    -0x24(%rsp),%eax
  4012e1:	69 c0 63 d3 00 00    	imul   $0xd363,%eax,%eax
  4012e7:	89 44 24 dc          	mov    %eax,-0x24(%rsp)
  4012eb:	8b 44 24 e4          	mov    -0x1c(%rsp),%eax
  4012ef:	69 c0 e7 dc 00 00    	imul   $0xdce7,%eax,%eax
  4012f5:	89 44 24 e4          	mov    %eax,-0x1c(%rsp)
  4012f9:	8b 44 24 f0          	mov    -0x10(%rsp),%eax
  4012fd:	69 c0 d3 76 00 00    	imul   $0x76d3,%eax,%eax
  401303:	89 44 24 f0          	mov    %eax,-0x10(%rsp)
  401307:	8b 44 24 d8          	mov    -0x28(%rsp),%eax
  40130b:	69 c0 31 36 00 00    	imul   $0x3631,%eax,%eax
  401311:	89 44 24 d8          	mov    %eax,-0x28(%rsp)
  401315:	8b 44 24 dc          	mov    -0x24(%rsp),%eax
  401319:	69 c0 0c 5d 00 00    	imul   $0x5d0c,%eax,%eax
  40131f:	89 44 24 dc          	mov    %eax,-0x24(%rsp)
  401323:	8b 44 24 dc          	mov    -0x24(%rsp),%eax
  401327:	69 c0 54 fd 00 00    	imul   $0xfd54,%eax,%eax
  40132d:	89 44 24 dc          	mov    %eax,-0x24(%rsp)
  401331:	8b 44 24 f0          	mov    -0x10(%rsp),%eax
  401335:	69 c0 19 70 00 00    	imul   $0x7019,%eax,%eax
  40133b:	89 44 24 f0          	mov    %eax,-0x10(%rsp)
  40133f:	8b 44 24 f0          	mov    -0x10(%rsp),%eax
  401343:	69 c0 d1 01 00 00    	imul   $0x1d1,%eax,%eax
  401349:	89 44 24 f0          	mov    %eax,-0x10(%rsp)
  40134d:	8b 44 24 d4          	mov    -0x2c(%rsp),%eax
  401351:	69 c0 f7 a8 00 00    	imul   $0xa8f7,%eax,%eax
  401357:	89 44 24 d4          	mov    %eax,-0x2c(%rsp)
  40135b:	8b 44 24 e4          	mov    -0x1c(%rsp),%eax
  40135f:	69 c0 d3 ac 00 00    	imul   $0xacd3,%eax,%eax
  401365:	89 44 24 e4          	mov    %eax,-0x1c(%rsp)
  401369:	8b 44 24 f4          	mov    -0xc(%rsp),%eax
  40136d:	69 c0 7c 90 00 00    	imul   $0x907c,%eax,%eax
  401373:	89 44 24 f4          	mov    %eax,-0xc(%rsp)
  401377:	8b 44 24 f4          	mov    -0xc(%rsp),%eax
  40137b:	69 c0 4d 52 00 00    	imul   $0x524d,%eax,%eax
  401381:	89 44 24 f4          	mov    %eax,-0xc(%rsp)
  401385:	8b 44 24 e0          	mov    -0x20(%rsp),%eax
  401389:	69 c0 65 87 00 00    	imul   $0x8765,%eax,%eax
  40138f:	89 44 24 e0          	mov    %eax,-0x20(%rsp)
  401393:	8b 44 24 f0          	mov    -0x10(%rsp),%eax
  401397:	69 c0 a1 d7 00 00    	imul   $0xd7a1,%eax,%eax
  40139d:	89 44 24 f0          	mov    %eax,-0x10(%rsp)
  4013a1:	8b 44 24 d0          	mov    -0x30(%rsp),%eax
  4013a5:	69 c0 61 da 00 00    	imul   $0xda61,%eax,%eax
  4013ab:	89 44 24 d0          	mov    %eax,-0x30(%rsp)
  4013af:	8b 44 24 f0          	mov    -0x10(%rsp),%eax
  4013b3:	69 c0 77 0f 00 00    	imul   $0xf77,%eax,%eax
  4013b9:	89 44 24 f0          	mov    %eax,-0x10(%rsp)
  4013bd:	8b 44 24 f4          	mov    -0xc(%rsp),%eax
  4013c1:	69 c0 17 a1 00 00    	imul   $0xa117,%eax,%eax
  4013c7:	89 44 24 f4          	mov    %eax,-0xc(%rsp)
  4013cb:	8b 44 24 d8          	mov    -0x28(%rsp),%eax
  4013cf:	69 c0 95 35 00 00    	imul   $0x3595,%eax,%eax
  4013d5:	89 44 24 d8          	mov    %eax,-0x28(%rsp)
  4013d9:	8b 44 24 e8          	mov    -0x18(%rsp),%eax
  4013dd:	69 c0 59 cb 00 00    	imul   $0xcb59,%eax,%eax
  4013e3:	89 44 24 e8          	mov    %eax,-0x18(%rsp)
  4013e7:	8b 44 24 ec          	mov    -0x14(%rsp),%eax
  4013eb:	69 c0 f8 c0 00 00    	imul   $0xc0f8,%eax,%eax
  4013f1:	89 44 24 ec          	mov    %eax,-0x14(%rsp)
  4013f5:	8b 44 24 f4          	mov    -0xc(%rsp),%eax
  4013f9:	69 c0 99 c3 00 00    	imul   $0xc399,%eax,%eax
  4013ff:	89 44 24 f4          	mov    %eax,-0xc(%rsp)
  401403:	8b 44 24 f0          	mov    -0x10(%rsp),%eax
  401407:	69 c0 7f 60 00 00    	imul   $0x607f,%eax,%eax
  40140d:	89 44 24 f0          	mov    %eax,-0x10(%rsp)
  401411:	8b 44 24 d8          	mov    -0x28(%rsp),%eax
  401415:	69 c0 09 49 00 00    	imul   $0x4909,%eax,%eax
  40141b:	89 44 24 d8          	mov    %eax,-0x28(%rsp)
  40141f:	8b 44 24 f0          	mov    -0x10(%rsp),%eax
  401423:	69 c0 b0 3b 00 00    	imul   $0x3bb0,%eax,%eax
  401429:	89 44 24 f0          	mov    %eax,-0x10(%rsp)
  40142d:	8b 44 24 ec          	mov    -0x14(%rsp),%eax
  401431:	69 c0 f1 9f 00 00    	imul   $0x9ff1,%eax,%eax
  401437:	89 44 24 ec          	mov    %eax,-0x14(%rsp)
  40143b:	8b 44 24 f0          	mov    -0x10(%rsp),%eax
  40143f:	69 c0 83 ca 00 00    	imul   $0xca83,%eax,%eax
  401445:	89 44 24 f0          	mov    %eax,-0x10(%rsp)
  401449:	8b 44 24 dc          	mov    -0x24(%rsp),%eax
  40144d:	69 c0 c5 a7 00 00    	imul   $0xa7c5,%eax,%eax
  401453:	89 44 24 dc          	mov    %eax,-0x24(%rsp)
  401457:	8b 44 24 e0          	mov    -0x20(%rsp),%eax
  40145b:	69 c0 eb 61 00 00    	imul   $0x61eb,%eax,%eax
  401461:	89 44 24 e0          	mov    %eax,-0x20(%rsp)
  401465:	8b 44 24 dc          	mov    -0x24(%rsp),%eax
  401469:	69 c0 89 e8 00 00    	imul   $0xe889,%eax,%eax
  40146f:	89 44 24 dc          	mov    %eax,-0x24(%rsp)
  401473:	8b 44 24 e0          	mov    -0x20(%rsp),%eax
  401477:	69 c0 8c fb 00 00    	imul   $0xfb8c,%eax,%eax
  40147d:	89 44 24 e0          	mov    %eax,-0x20(%rsp)
  401481:	8b 44 24 d0          	mov    -0x30(%rsp),%eax
  401485:	69 c0 37 f4 00 00    	imul   $0xf437,%eax,%eax
  40148b:	89 44 24 d0          	mov    %eax,-0x30(%rsp)
  40148f:	8b 44 24 d8          	mov    -0x28(%rsp),%eax
  401493:	69 c0 ae 70 00 00    	imul   $0x70ae,%eax,%eax
  401499:	89 44 24 d8          	mov    %eax,-0x28(%rsp)
  40149d:	8b 44 24 f4          	mov    -0xc(%rsp),%eax
  4014a1:	69 c0 63 f7 00 00    	imul   $0xf763,%eax,%eax
  4014a7:	89 44 24 f4          	mov    %eax,-0xc(%rsp)
  4014ab:	8b 44 24 f0          	mov    -0x10(%rsp),%eax
  4014af:	69 c0 39 ad 00 00    	imul   $0xad39,%eax,%eax
  4014b5:	89 44 24 f0          	mov    %eax,-0x10(%rsp)
  4014b9:	8b 44 24 dc          	mov    -0x24(%rsp),%eax
  4014bd:	69 c0 0a 12 00 00    	imul   $0x120a,%eax,%eax
  4014c3:	89 44 24 dc          	mov    %eax,-0x24(%rsp)
  4014c7:	8b 44 24 ec          	mov    -0x14(%rsp),%eax
  4014cb:	69 c0 21 eb 00 00    	imul   $0xeb21,%eax,%eax
  4014d1:	89 44 24 ec          	mov    %eax,-0x14(%rsp)
  4014d5:	8b 44 24 f0          	mov    -0x10(%rsp),%eax
  4014d9:	69 c0 7e 2c 00 00    	imul   $0x2c7e,%eax,%eax
  4014df:	89 44 24 f0          	mov    %eax,-0x10(%rsp)
  4014e3:	8b 44 24 e0          	mov    -0x20(%rsp),%eax
  4014e7:	69 c0 56 09 00 00    	imul   $0x956,%eax,%eax
  4014ed:	89 44 24 e0          	mov    %eax,-0x20(%rsp)
  4014f1:	8b 44 24 e8          	mov    -0x18(%rsp),%eax
  4014f5:	69 c0 f1 ad 00 00    	imul   $0xadf1,%eax,%eax
  4014fb:	89 44 24 e8          	mov    %eax,-0x18(%rsp)
  4014ff:	8b 44 24 e8          	mov    -0x18(%rsp),%eax
  401503:	69 c0 88 67 00 00    	imul   $0x6788,%eax,%eax
  401509:	89 44 24 e8          	mov    %eax,-0x18(%rsp)
  40150d:	8b 44 24 d0          	mov    -0x30(%rsp),%eax
  401511:	69 c0 8a 2d 00 00    	imul   $0x2d8a,%eax,%eax
  401517:	89 44 24 d0          	mov    %eax,-0x30(%rsp)
  40151b:	8b 44 24 ec          	mov    -0x14(%rsp),%eax
  40151f:	69 c0 50 7e 00 00    	imul   $0x7e50,%eax,%eax
  401525:	89 44 24 ec          	mov    %eax,-0x14(%rsp)
  401529:	8b 44 24 e0          	mov    -0x20(%rsp),%eax
  40152d:	69 c0 dd 4e 00 00    	imul   $0x4edd,%eax,%eax
  401533:	89 44 24 e0          	mov    %eax,-0x20(%rsp)
  401537:	8b 44 24 d8          	mov    -0x28(%rsp),%eax
  40153b:	69 c0 79 04 00 00    	imul   $0x479,%eax,%eax
  401541:	89 44 24 d8          	mov    %eax,-0x28(%rsp)
  401545:	8b 44 24 e4          	mov    -0x1c(%rsp),%eax
  401549:	69 c0 c9 19 00 00    	imul   $0x19c9,%eax,%eax
  40154f:	89 44 24 e4          	mov    %eax,-0x1c(%rsp)
  401553:	8b 44 24 e8          	mov    -0x18(%rsp),%eax
  401557:	69 c0 51 fa 00 00    	imul   $0xfa51,%eax,%eax
  40155d:	89 44 24 e8          	mov    %eax,-0x18(%rsp)
  401561:	8b 44 24 d4          	mov    -0x2c(%rsp),%eax
  401565:	69 c0 09 0b 00 00    	imul   $0xb09,%eax,%eax
  40156b:	89 44 24 d4          	mov    %eax,-0x2c(%rsp)
  40156f:	8b 44 24 f0          	mov    -0x10(%rsp),%eax
  401573:	69 c0 4e a3 00 00    	imul   $0xa34e,%eax,%eax
  401579:	89 44 24 f0          	mov    %eax,-0x10(%rsp)
  40157d:	8b 44 24 e4          	mov    -0x1c(%rsp),%eax
  401581:	69 c0 43 11 00 00    	imul   $0x1143,%eax,%eax
  401587:	89 44 24 e4          	mov    %eax,-0x1c(%rsp)
  40158b:	8b 44 24 f4          	mov    -0xc(%rsp),%eax
  40158f:	69 c0 28 c5 00 00    	imul   $0xc528,%eax,%eax
  401595:	89 44 24 f4          	mov    %eax,-0xc(%rsp)
  401599:	8b 44 24 e0          	mov    -0x20(%rsp),%eax
  40159d:	69 c0 b9 be 00 00    	imul   $0xbeb9,%eax,%eax
  4015a3:	89 44 24 e0          	mov    %eax,-0x20(%rsp)
  4015a7:	8b 44 24 e4          	mov    -0x1c(%rsp),%eax
  4015ab:	69 c0 f0 f8 00 00    	imul   $0xf8f0,%eax,%eax
  4015b1:	89 44 24 e4          	mov    %eax,-0x1c(%rsp)
  4015b5:	8b 44 24 e8          	mov    -0x18(%rsp),%eax
  4015b9:	69 c0 ea fb 00 00    	imul   $0xfbea,%eax,%eax
  4015bf:	89 44 24 e8          	mov    %eax,-0x18(%rsp)
  4015c3:	8b 44 24 dc          	mov    -0x24(%rsp),%eax
  4015c7:	69 c0 bf 60 00 00    	imul   $0x60bf,%eax,%eax
  4015cd:	89 44 24 dc          	mov    %eax,-0x24(%rsp)
  4015d1:	8b 44 24 e8          	mov    -0x18(%rsp),%eax
  4015d5:	69 c0 4d 47 00 00    	imul   $0x474d,%eax,%eax
  4015db:	89 44 24 e8          	mov    %eax,-0x18(%rsp)
  4015df:	8b 44 24 dc          	mov    -0x24(%rsp),%eax
  4015e3:	69 c0 be f7 00 00    	imul   $0xf7be,%eax,%eax
  4015e9:	89 44 24 dc          	mov    %eax,-0x24(%rsp)
  4015ed:	8b 44 24 f0          	mov    -0x10(%rsp),%eax
  4015f1:	69 c0 54 fa 00 00    	imul   $0xfa54,%eax,%eax
  4015f7:	89 44 24 f0          	mov    %eax,-0x10(%rsp)
  4015fb:	8b 44 24 dc          	mov    -0x24(%rsp),%eax
  4015ff:	69 c0 26 4a 00 00    	imul   $0x4a26,%eax,%eax
  401605:	89 44 24 dc          	mov    %eax,-0x24(%rsp)
  401609:	8b 44 24 dc          	mov    -0x24(%rsp),%eax
  40160d:	69 c0 4a 56 00 00    	imul   $0x564a,%eax,%eax
  401613:	89 44 24 dc          	mov    %eax,-0x24(%rsp)
  401617:	8b 44 24 dc          	mov    -0x24(%rsp),%eax
  40161b:	69 c0 97 80 00 00    	imul   $0x8097,%eax,%eax
  401621:	89 44 24 dc          	mov    %eax,-0x24(%rsp)
  401625:	8b 44 24 e0          	mov    -0x20(%rsp),%eax
  401629:	69 c0 a4 4e 00 00    	imul   $0x4ea4,%eax,%eax
  40162f:	89 44 24 e0          	mov    %eax,-0x20(%rsp)
  401633:	8b 44 24 f0          	mov    -0x10(%rsp),%eax
  401637:	69 c0 13 7e 00 00    	imul   $0x7e13,%eax,%eax
  40163d:	89 44 24 f0          	mov    %eax,-0x10(%rsp)
  401641:	8b 44 24 f0          	mov    -0x10(%rsp),%eax
  401645:	69 c0 e8 e5 00 00    	imul   $0xe5e8,%eax,%eax
  40164b:	89 44 24 f0          	mov    %eax,-0x10(%rsp)
  40164f:	8b 44 24 ec          	mov    -0x14(%rsp),%eax
  401653:	69 c0 1a 5c 00 00    	imul   $0x5c1a,%eax,%eax
  401659:	89 44 24 ec          	mov    %eax,-0x14(%rsp)
  40165d:	8b 44 24 e4          	mov    -0x1c(%rsp),%eax
  401661:	69 c0 e9 71 00 00    	imul   $0x71e9,%eax,%eax
  401667:	89 44 24 e4          	mov    %eax,-0x1c(%rsp)
  40166b:	8b 44 24 f0          	mov    -0x10(%rsp),%eax
  40166f:	69 c0 78 1a 00 00    	imul   $0x1a78,%eax,%eax
  401675:	89 44 24 f0          	mov    %eax,-0x10(%rsp)
  401679:	8b 44 24 e8          	mov    -0x18(%rsp),%eax
  40167d:	69 c0 8d d1 00 00    	imul   $0xd18d,%eax,%eax
  401683:	89 44 24 e8          	mov    %eax,-0x18(%rsp)
  401687:	8b 44 24 d4          	mov    -0x2c(%rsp),%eax
  40168b:	69 c0 da 1b 00 00    	imul   $0x1bda,%eax,%eax
  401691:	89 44 24 d4          	mov    %eax,-0x2c(%rsp)
  401695:	8b 44 24 ec          	mov    -0x14(%rsp),%eax
  401699:	69 c0 af 15 00 00    	imul   $0x15af,%eax,%eax
  40169f:	89 44 24 ec          	mov    %eax,-0x14(%rsp)
  4016a3:	8b 44 24 d8          	mov    -0x28(%rsp),%eax
  4016a7:	69 c0 53 77 00 00    	imul   $0x7753,%eax,%eax
  4016ad:	89 44 24 d8          	mov    %eax,-0x28(%rsp)
  4016b1:	8b 44 24 f4          	mov    -0xc(%rsp),%eax
  4016b5:	69 c0 e1 44 00 00    	imul   $0x44e1,%eax,%eax
  4016bb:	89 44 24 f4          	mov    %eax,-0xc(%rsp)
  4016bf:	8b 44 24 e4          	mov    -0x1c(%rsp),%eax
  4016c3:	69 c0 d3 d1 00 00    	imul   $0xd1d3,%eax,%eax
  4016c9:	89 44 24 e4          	mov    %eax,-0x1c(%rsp)
  4016cd:	8b 44 24 ec          	mov    -0x14(%rsp),%eax
  4016d1:	69 c0 1f e5 00 00    	imul   $0xe51f,%eax,%eax
  4016d7:	89 44 24 ec          	mov    %eax,-0x14(%rsp)
  4016db:	8b 44 24 d8          	mov    -0x28(%rsp),%eax
  4016df:	69 c0 66 88 00 00    	imul   $0x8866,%eax,%eax
  4016e5:	89 44 24 d8          	mov    %eax,-0x28(%rsp)
  4016e9:	8b 44 24 e8          	mov    -0x18(%rsp),%eax
  4016ed:	69 c0 98 6a 00 00    	imul   $0x6a98,%eax,%eax
  4016f3:	89 44 24 e8          	mov    %eax,-0x18(%rsp)
  4016f7:	8b 44 24 d8          	mov    -0x28(%rsp),%eax
  4016fb:	69 c0 7d ab 00 00    	imul   $0xab7d,%eax,%eax
  401701:	89 44 24 d8          	mov    %eax,-0x28(%rsp)
  401705:	ba 00 00 00 00       	mov    $0x0,%edx
  40170a:	b8 00 00 00 00       	mov    $0x0,%eax
  40170f:	eb 0b                	jmp    40171c <scramble+0x478>
  401711:	89 d1                	mov    %edx,%ecx
  401713:	8b 4c 8c d0          	mov    -0x30(%rsp,%rcx,4),%ecx
  401717:	01 c8                	add    %ecx,%eax
  401719:	83 c2 01             	add    $0x1,%edx
  40171c:	83 fa 09             	cmp    $0x9,%edx
  40171f:	76 f0                	jbe    401711 <scramble+0x46d>
  401721:	f3 c3                	repz retq 
  401723:	90                   	nop

0000000000401724 <getbuf>:
  401724:	48 83 ec 28          	sub    $0x28,%rsp  // move rsp down by 40 bytes 
  401728:	48 89 e7             	mov    %rsp,%rdi
  40172b:	e8 3a 02 00 00       	callq  40196a <Gets>
  401730:	b8 01 00 00 00       	mov    $0x1,%eax
  401735:	48 83 c4 28          	add    $0x28,%rsp
  401739:	c3                   	retq   
  40173a:	66 90                	xchg   %ax,%ax

000000000040173c <touch1>:
  40173c:	48 83 ec 08          	sub    $0x8,%rsp
  401740:	c7 05 b2 2d 20 00 01 	movl   $0x1,0x202db2(%rip)        # 6044fc <vlevel>
  401747:	00 00 00 
  40174a:	bf d2 2e 40 00       	mov    $0x402ed2,%edi
  40174f:	e8 fc f4 ff ff       	callq  400c50 <puts@plt>
  401754:	bf 01 00 00 00       	mov    $0x1,%edi
  401759:	e8 fb 03 00 00       	callq  401b59 <validate>
  40175e:	bf 00 00 00 00       	mov    $0x0,%edi
  401763:	e8 88 f6 ff ff       	callq  400df0 <exit@plt>

0000000000401768 <touch2>:
  401768:	48 83 ec 08          	sub    $0x8,%rsp
  40176c:	89 fe                	mov    %edi,%esi
  40176e:	c7 05 84 2d 20 00 02 	movl   $0x2,0x202d84(%rip)        # 6044fc <vlevel>
  401775:	00 00 00 
  401778:	3b 3d 86 2d 20 00    	cmp    0x202d86(%rip),%edi        # 604504 <cookie>
  40177e:	75 1b                	jne    40179b <touch2+0x33>
  401780:	bf f8 2e 40 00       	mov    $0x402ef8,%edi
  401785:	b8 00 00 00 00       	mov    $0x0,%eax
  40178a:	e8 f1 f4 ff ff       	callq  400c80 <printf@plt>
  40178f:	bf 02 00 00 00       	mov    $0x2,%edi
  401794:	e8 c0 03 00 00       	callq  401b59 <validate>
  401799:	eb 19                	jmp    4017b4 <touch2+0x4c>
  40179b:	bf 20 2f 40 00       	mov    $0x402f20,%edi
  4017a0:	b8 00 00 00 00       	mov    $0x0,%eax
  4017a5:	e8 d6 f4 ff ff       	callq  400c80 <printf@plt>
  4017aa:	bf 02 00 00 00       	mov    $0x2,%edi
  4017af:	e8 57 04 00 00       	callq  401c0b <fail>
  4017b4:	bf 00 00 00 00       	mov    $0x0,%edi
  4017b9:	e8 32 f6 ff ff       	callq  400df0 <exit@plt>

00000000004017be <hexmatch>:
  4017be:	41 54                	push   %r12
  4017c0:	55                   	push   %rbp
  4017c1:	53                   	push   %rbx
  4017c2:	48 83 ec 70          	sub    $0x70,%rsp
  4017c6:	41 89 fc             	mov    %edi,%r12d
  4017c9:	48 89 f5             	mov    %rsi,%rbp
  4017cc:	e8 7f f5 ff ff       	callq  400d50 <random@plt>
  4017d1:	48 89 c1             	mov    %rax,%rcx
  4017d4:	48 ba 0b d7 a3 70 3d 	movabs $0xa3d70a3d70a3d70b,%rdx
  4017db:	0a d7 a3 
  4017de:	48 f7 ea             	imul   %rdx
  4017e1:	48 8d 04 0a          	lea    (%rdx,%rcx,1),%rax
  4017e5:	48 c1 f8 06          	sar    $0x6,%rax
  4017e9:	48 89 ce             	mov    %rcx,%rsi
  4017ec:	48 c1 fe 3f          	sar    $0x3f,%rsi
  4017f0:	48 29 f0             	sub    %rsi,%rax
  4017f3:	48 8d 04 80          	lea    (%rax,%rax,4),%rax
  4017f7:	48 8d 04 80          	lea    (%rax,%rax,4),%rax
  4017fb:	48 c1 e0 02          	shl    $0x2,%rax
  4017ff:	48 29 c1             	sub    %rax,%rcx
  401802:	48 8d 1c 0c          	lea    (%rsp,%rcx,1),%rbx
  401806:	44 89 e2             	mov    %r12d,%edx
  401809:	be ef 2e 40 00       	mov    $0x402eef,%esi
  40180e:	48 89 df             	mov    %rbx,%rdi
  401811:	b8 00 00 00 00       	mov    $0x0,%eax
  401816:	e8 c5 f5 ff ff       	callq  400de0 <sprintf@plt>
  40181b:	ba 09 00 00 00       	mov    $0x9,%edx
  401820:	48 89 de             	mov    %rbx,%rsi
  401823:	48 89 ef             	mov    %rbp,%rdi
  401826:	e8 05 f4 ff ff       	callq  400c30 <strncmp@plt>
  40182b:	85 c0                	test   %eax,%eax
  40182d:	0f 94 c0             	sete   %al
  401830:	0f b6 c0             	movzbl %al,%eax
  401833:	48 83 c4 70          	add    $0x70,%rsp
  401837:	5b                   	pop    %rbx
  401838:	5d                   	pop    %rbp
  401839:	41 5c                	pop    %r12
  40183b:	c3                   	retq   

000000000040183c <touch3>:
  40183c:	53                   	push   %rbx
  40183d:	48 89 fb             	mov    %rdi,%rbx
  401840:	c7 05 b2 2c 20 00 03 	movl   $0x3,0x202cb2(%rip)        # 6044fc <vlevel>
  401847:	00 00 00 
  40184a:	48 89 fe             	mov    %rdi,%rsi
  40184d:	8b 3d b1 2c 20 00    	mov    0x202cb1(%rip),%edi        # 604504 <cookie>
  401853:	e8 66 ff ff ff       	callq  4017be <hexmatch>
  401858:	85 c0                	test   %eax,%eax
  40185a:	74 1e                	je     40187a <touch3+0x3e>
  40185c:	48 89 de             	mov    %rbx,%rsi
  40185f:	bf 48 2f 40 00       	mov    $0x402f48,%edi
  401864:	b8 00 00 00 00       	mov    $0x0,%eax
  401869:	e8 12 f4 ff ff       	callq  400c80 <printf@plt>
  40186e:	bf 03 00 00 00       	mov    $0x3,%edi
  401873:	e8 e1 02 00 00       	callq  401b59 <validate>
  401878:	eb 1c                	jmp    401896 <touch3+0x5a>
  40187a:	48 89 de             	mov    %rbx,%rsi
  40187d:	bf 70 2f 40 00       	mov    $0x402f70,%edi
  401882:	b8 00 00 00 00       	mov    $0x0,%eax
  401887:	e8 f4 f3 ff ff       	callq  400c80 <printf@plt>
  40188c:	bf 03 00 00 00       	mov    $0x3,%edi
  401891:	e8 75 03 00 00       	callq  401c0b <fail>
  401896:	bf 00 00 00 00       	mov    $0x0,%edi
  40189b:	e8 50 f5 ff ff       	callq  400df0 <exit@plt>

00000000004018a0 <test>:                                                                       *** TEST ***
  4018a0:	48 83 ec 08          	sub    $0x8,%rsp
  4018a4:	b8 00 00 00 00       	mov    $0x0,%eax
  4018a9:	e8 76 fe ff ff       	callq  401724 <getbuf>
  4018ae:	89 c6                	mov    %eax,%esi
  4018b0:	bf 98 2f 40 00       	mov    $0x402f98,%edi
  4018b5:	b8 00 00 00 00       	mov    $0x0,%eax
  4018ba:	e8 c1 f3 ff ff       	callq  400c80 <printf@plt>
  4018bf:	48 83 c4 08          	add    $0x8,%rsp
  4018c3:	c3                   	retq   
  4018c4:	66 2e 0f 1f 84 00 00 	nopw   %cs:0x0(%rax,%rax,1)
  4018cb:	00 00 00 
  4018ce:	66 90                	xchg   %ax,%ax

00000000004018d0 <save_char>:
  4018d0:	8b 05 4e 38 20 00    	mov    0x20384e(%rip),%eax        # 605124 <gets_cnt>
  4018d6:	3d ff 03 00 00       	cmp    $0x3ff,%eax
  4018db:	7f 49                	jg     401926 <save_char+0x56>
  4018dd:	8d 14 40             	lea    (%rax,%rax,2),%edx
  4018e0:	89 f9                	mov    %edi,%ecx
  4018e2:	c0 e9 04             	shr    $0x4,%cl
  4018e5:	83 e1 0f             	and    $0xf,%ecx
  4018e8:	0f b6 b1 c0 32 40 00 	movzbl 0x4032c0(%rcx),%esi
  4018ef:	48 63 ca             	movslq %edx,%rcx
  4018f2:	40 88 b1 20 45 60 00 	mov    %sil,0x604520(%rcx)
  4018f9:	8d 4a 01             	lea    0x1(%rdx),%ecx
  4018fc:	83 e7 0f             	and    $0xf,%edi
  4018ff:	0f b6 b7 c0 32 40 00 	movzbl 0x4032c0(%rdi),%esi
  401906:	48 63 c9             	movslq %ecx,%rcx
  401909:	40 88 b1 20 45 60 00 	mov    %sil,0x604520(%rcx)
  401910:	83 c2 02             	add    $0x2,%edx
  401913:	48 63 d2             	movslq %edx,%rdx
  401916:	c6 82 20 45 60 00 20 	movb   $0x20,0x604520(%rdx)
  40191d:	83 c0 01             	add    $0x1,%eax
  401920:	89 05 fe 37 20 00    	mov    %eax,0x2037fe(%rip)        # 605124 <gets_cnt>
  401926:	f3 c3                	repz retq 

0000000000401928 <save_term>:
  401928:	8b 05 f6 37 20 00    	mov    0x2037f6(%rip),%eax        # 605124 <gets_cnt>
  40192e:	8d 04 40             	lea    (%rax,%rax,2),%eax
  401931:	48 98                	cltq   
  401933:	c6 80 20 45 60 00 00 	movb   $0x0,0x604520(%rax)
  40193a:	c3                   	retq   

000000000040193b <check_fail>:
  40193b:	48 83 ec 08          	sub    $0x8,%rsp
  40193f:	0f be 35 e2 37 20 00 	movsbl 0x2037e2(%rip),%esi        # 605128 <target_prefix>
  401946:	b9 20 45 60 00       	mov    $0x604520,%ecx
  40194b:	8b 15 a7 2b 20 00    	mov    0x202ba7(%rip),%edx        # 6044f8 <check_level>
  401951:	bf bb 2f 40 00       	mov    $0x402fbb,%edi
  401956:	b8 00 00 00 00       	mov    $0x0,%eax
  40195b:	e8 20 f3 ff ff       	callq  400c80 <printf@plt>
  401960:	bf 01 00 00 00       	mov    $0x1,%edi
  401965:	e8 86 f4 ff ff       	callq  400df0 <exit@plt>

000000000040196a <Gets>:
  40196a:	41 54                	push   %r12
  40196c:	55                   	push   %rbp
  40196d:	53                   	push   %rbx
  40196e:	49 89 fc             	mov    %rdi,%r12
  401971:	c7 05 a9 37 20 00 00 	movl   $0x0,0x2037a9(%rip)        # 605124 <gets_cnt>
  401978:	00 00 00 
  40197b:	48 89 fb             	mov    %rdi,%rbx
  40197e:	eb 11                	jmp    401991 <Gets+0x27>
  401980:	48 8d 6b 01          	lea    0x1(%rbx),%rbp
  401984:	88 03                	mov    %al,(%rbx)
  401986:	0f b6 f8             	movzbl %al,%edi
  401989:	e8 42 ff ff ff       	callq  4018d0 <save_char>
  40198e:	48 89 eb             	mov    %rbp,%rbx
  401991:	48 8b 3d 58 2b 20 00 	mov    0x202b58(%rip),%rdi        # 6044f0 <infile>
  401998:	e8 c3 f3 ff ff       	callq  400d60 <_IO_getc@plt>
  40199d:	83 f8 ff             	cmp    $0xffffffff,%eax
  4019a0:	74 05                	je     4019a7 <Gets+0x3d>
  4019a2:	83 f8 0a             	cmp    $0xa,%eax
  4019a5:	75 d9                	jne    401980 <Gets+0x16>
  4019a7:	c6 03 00             	movb   $0x0,(%rbx)
  4019aa:	b8 00 00 00 00       	mov    $0x0,%eax
  4019af:	e8 74 ff ff ff       	callq  401928 <save_term>
  4019b4:	4c 89 e0             	mov    %r12,%rax
  4019b7:	5b                   	pop    %rbx
  4019b8:	5d                   	pop    %rbp
  4019b9:	41 5c                	pop    %r12
  4019bb:	c3                   	retq   

00000000004019bc <notify_server>:
  4019bc:	83 3d 45 2b 20 00 00 	cmpl   $0x0,0x202b45(%rip)        # 604508 <is_checker>
  4019c3:	0f 85 8e 01 00 00    	jne    401b57 <notify_server+0x19b>
  4019c9:	53                   	push   %rbx
  4019ca:	48 81 ec 10 40 00 00 	sub    $0x4010,%rsp
  4019d1:	89 fb                	mov    %edi,%ebx
  4019d3:	8b 05 4b 37 20 00    	mov    0x20374b(%rip),%eax        # 605124 <gets_cnt>
  4019d9:	83 c0 64             	add    $0x64,%eax
  4019dc:	3d 00 20 00 00       	cmp    $0x2000,%eax
  4019e1:	7e 19                	jle    4019fc <notify_server+0x40>
  4019e3:	bf f0 30 40 00       	mov    $0x4030f0,%edi
  4019e8:	b8 00 00 00 00       	mov    $0x0,%eax
  4019ed:	e8 8e f2 ff ff       	callq  400c80 <printf@plt>
  4019f2:	bf 01 00 00 00       	mov    $0x1,%edi
  4019f7:	e8 f4 f3 ff ff       	callq  400df0 <exit@plt>
  4019fc:	44 0f be 0d 24 37 20 	movsbl 0x203724(%rip),%r9d        # 605128 <target_prefix>
  401a03:	00 
  401a04:	83 3d 9d 2a 20 00 00 	cmpl   $0x0,0x202a9d(%rip)        # 6044a8 <notify>
  401a0b:	74 09                	je     401a16 <notify_server+0x5a>
  401a0d:	44 8b 05 ec 2a 20 00 	mov    0x202aec(%rip),%r8d        # 604500 <authkey>
  401a14:	eb 06                	jmp    401a1c <notify_server+0x60>
  401a16:	41 b8 ff ff ff ff    	mov    $0xffffffff,%r8d
  401a1c:	85 db                	test   %ebx,%ebx
  401a1e:	74 07                	je     401a27 <notify_server+0x6b>
  401a20:	b9 d1 2f 40 00       	mov    $0x402fd1,%ecx
  401a25:	eb 05                	jmp    401a2c <notify_server+0x70>
  401a27:	b9 d6 2f 40 00       	mov    $0x402fd6,%ecx
  401a2c:	48 c7 44 24 08 20 45 	movq   $0x604520,0x8(%rsp)
  401a33:	60 00 
  401a35:	89 34 24             	mov    %esi,(%rsp)
  401a38:	8b 15 2a 27 20 00    	mov    0x20272a(%rip),%edx        # 604168 <target_id>
  401a3e:	be db 2f 40 00       	mov    $0x402fdb,%esi
  401a43:	48 8d bc 24 10 20 00 	lea    0x2010(%rsp),%rdi
  401a4a:	00 
  401a4b:	b8 00 00 00 00       	mov    $0x0,%eax
  401a50:	e8 8b f3 ff ff       	callq  400de0 <sprintf@plt>
  401a55:	83 3d 4c 2a 20 00 00 	cmpl   $0x0,0x202a4c(%rip)        # 6044a8 <notify>
  401a5c:	74 78                	je     401ad6 <notify_server+0x11a>
  401a5e:	85 db                	test   %ebx,%ebx
  401a60:	74 68                	je     401aca <notify_server+0x10e>
  401a62:	4c 8d 4c 24 10       	lea    0x10(%rsp),%r9
  401a67:	41 b8 00 00 00 00    	mov    $0x0,%r8d
  401a6d:	48 8d 8c 24 10 20 00 	lea    0x2010(%rsp),%rcx
  401a74:	00 
  401a75:	48 8b 15 f4 26 20 00 	mov    0x2026f4(%rip),%rdx        # 604170 <lab>
  401a7c:	48 8b 35 f5 26 20 00 	mov    0x2026f5(%rip),%rsi        # 604178 <course>
  401a83:	48 8b 3d d6 26 20 00 	mov    0x2026d6(%rip),%rdi        # 604160 <user_id>
  401a8a:	e8 94 0f 00 00       	callq  402a23 <driver_post>
  401a8f:	85 c0                	test   %eax,%eax
  401a91:	79 1e                	jns    401ab1 <notify_server+0xf5>
  401a93:	48 8d 74 24 10       	lea    0x10(%rsp),%rsi
  401a98:	bf f7 2f 40 00       	mov    $0x402ff7,%edi
  401a9d:	b8 00 00 00 00       	mov    $0x0,%eax
  401aa2:	e8 d9 f1 ff ff       	callq  400c80 <printf@plt>
  401aa7:	bf 01 00 00 00       	mov    $0x1,%edi
  401aac:	e8 3f f3 ff ff       	callq  400df0 <exit@plt>
  401ab1:	bf 20 31 40 00       	mov    $0x403120,%edi
  401ab6:	e8 95 f1 ff ff       	callq  400c50 <puts@plt>
  401abb:	bf 03 30 40 00       	mov    $0x403003,%edi
  401ac0:	e8 8b f1 ff ff       	callq  400c50 <puts@plt>
  401ac5:	e9 85 00 00 00       	jmpq   401b4f <notify_server+0x193>
  401aca:	bf 0d 30 40 00       	mov    $0x40300d,%edi
  401acf:	e8 7c f1 ff ff       	callq  400c50 <puts@plt>
  401ad4:	eb 79                	jmp    401b4f <notify_server+0x193>
  401ad6:	85 db                	test   %ebx,%ebx
  401ad8:	74 08                	je     401ae2 <notify_server+0x126>
  401ada:	be d1 2f 40 00       	mov    $0x402fd1,%esi
  401adf:	90                   	nop
  401ae0:	eb 05                	jmp    401ae7 <notify_server+0x12b>
  401ae2:	be d6 2f 40 00       	mov    $0x402fd6,%esi
  401ae7:	bf 58 31 40 00       	mov    $0x403158,%edi
  401aec:	b8 00 00 00 00       	mov    $0x0,%eax
  401af1:	e8 8a f1 ff ff       	callq  400c80 <printf@plt>
  401af6:	48 8b 35 63 26 20 00 	mov    0x202663(%rip),%rsi        # 604160 <user_id>
  401afd:	bf 14 30 40 00       	mov    $0x403014,%edi
  401b02:	b8 00 00 00 00       	mov    $0x0,%eax
  401b07:	e8 74 f1 ff ff       	callq  400c80 <printf@plt>
  401b0c:	48 8b 35 65 26 20 00 	mov    0x202665(%rip),%rsi        # 604178 <course>
  401b13:	bf 21 30 40 00       	mov    $0x403021,%edi
  401b18:	b8 00 00 00 00       	mov    $0x0,%eax
  401b1d:	e8 5e f1 ff ff       	callq  400c80 <printf@plt>
  401b22:	48 8b 35 47 26 20 00 	mov    0x202647(%rip),%rsi        # 604170 <lab>
  401b29:	bf 2d 30 40 00       	mov    $0x40302d,%edi
  401b2e:	b8 00 00 00 00       	mov    $0x0,%eax
  401b33:	e8 48 f1 ff ff       	callq  400c80 <printf@plt>
  401b38:	48 8d b4 24 10 20 00 	lea    0x2010(%rsp),%rsi
  401b3f:	00 
  401b40:	bf 36 30 40 00       	mov    $0x403036,%edi
  401b45:	b8 00 00 00 00       	mov    $0x0,%eax
  401b4a:	e8 31 f1 ff ff       	callq  400c80 <printf@plt>
  401b4f:	48 81 c4 10 40 00 00 	add    $0x4010,%rsp
  401b56:	5b                   	pop    %rbx
  401b57:	f3 c3                	repz retq 

0000000000401b59 <validate>:
  401b59:	53                   	push   %rbx
  401b5a:	89 fb                	mov    %edi,%ebx
  401b5c:	83 3d a5 29 20 00 00 	cmpl   $0x0,0x2029a5(%rip)        # 604508 <is_checker>
  401b63:	74 60                	je     401bc5 <validate+0x6c>
  401b65:	39 3d 91 29 20 00    	cmp    %edi,0x202991(%rip)        # 6044fc <vlevel>
  401b6b:	74 14                	je     401b81 <validate+0x28>
  401b6d:	bf 42 30 40 00       	mov    $0x403042,%edi
  401b72:	e8 d9 f0 ff ff       	callq  400c50 <puts@plt>
  401b77:	b8 00 00 00 00       	mov    $0x0,%eax
  401b7c:	e8 ba fd ff ff       	callq  40193b <check_fail>
  401b81:	8b 35 71 29 20 00    	mov    0x202971(%rip),%esi        # 6044f8 <check_level>
  401b87:	39 fe                	cmp    %edi,%esi
  401b89:	74 1b                	je     401ba6 <validate+0x4d>
  401b8b:	89 fa                	mov    %edi,%edx
  401b8d:	bf 80 31 40 00       	mov    $0x403180,%edi
  401b92:	b8 00 00 00 00       	mov    $0x0,%eax
  401b97:	e8 e4 f0 ff ff       	callq  400c80 <printf@plt>
  401b9c:	b8 00 00 00 00       	mov    $0x0,%eax
  401ba1:	e8 95 fd ff ff       	callq  40193b <check_fail>
  401ba6:	0f be 35 7b 35 20 00 	movsbl 0x20357b(%rip),%esi        # 605128 <target_prefix>
  401bad:	b9 20 45 60 00       	mov    $0x604520,%ecx
  401bb2:	89 fa                	mov    %edi,%edx
  401bb4:	bf 60 30 40 00       	mov    $0x403060,%edi
  401bb9:	b8 00 00 00 00       	mov    $0x0,%eax
  401bbe:	e8 bd f0 ff ff       	callq  400c80 <printf@plt>
  401bc3:	eb 44                	jmp    401c09 <validate+0xb0>
  401bc5:	39 3d 31 29 20 00    	cmp    %edi,0x202931(%rip)        # 6044fc <vlevel>
  401bcb:	74 18                	je     401be5 <validate+0x8c>
  401bcd:	bf 42 30 40 00       	mov    $0x403042,%edi
  401bd2:	e8 79 f0 ff ff       	callq  400c50 <puts@plt>
  401bd7:	89 de                	mov    %ebx,%esi
  401bd9:	bf 00 00 00 00       	mov    $0x0,%edi
  401bde:	e8 d9 fd ff ff       	callq  4019bc <notify_server>
  401be3:	eb 24                	jmp    401c09 <validate+0xb0>
  401be5:	0f be 15 3c 35 20 00 	movsbl 0x20353c(%rip),%edx        # 605128 <target_prefix>
  401bec:	89 fe                	mov    %edi,%esi
  401bee:	bf a8 31 40 00       	mov    $0x4031a8,%edi
  401bf3:	b8 00 00 00 00       	mov    $0x0,%eax
  401bf8:	e8 83 f0 ff ff       	callq  400c80 <printf@plt>
  401bfd:	89 de                	mov    %ebx,%esi
  401bff:	bf 01 00 00 00       	mov    $0x1,%edi
  401c04:	e8 b3 fd ff ff       	callq  4019bc <notify_server>
  401c09:	5b                   	pop    %rbx
  401c0a:	c3                   	retq   

0000000000401c0b <fail>:
  401c0b:	48 83 ec 08          	sub    $0x8,%rsp
  401c0f:	83 3d f2 28 20 00 00 	cmpl   $0x0,0x2028f2(%rip)        # 604508 <is_checker>
  401c16:	74 0a                	je     401c22 <fail+0x17>
  401c18:	b8 00 00 00 00       	mov    $0x0,%eax
  401c1d:	e8 19 fd ff ff       	callq  40193b <check_fail>
  401c22:	89 fe                	mov    %edi,%esi
  401c24:	bf 00 00 00 00       	mov    $0x0,%edi
  401c29:	e8 8e fd ff ff       	callq  4019bc <notify_server>
  401c2e:	48 83 c4 08          	add    $0x8,%rsp
  401c32:	c3                   	retq   

0000000000401c33 <bushandler>:
  401c33:	48 83 ec 08          	sub    $0x8,%rsp
  401c37:	83 3d ca 28 20 00 00 	cmpl   $0x0,0x2028ca(%rip)        # 604508 <is_checker>
  401c3e:	74 14                	je     401c54 <bushandler+0x21>
  401c40:	bf 75 30 40 00       	mov    $0x403075,%edi
  401c45:	e8 06 f0 ff ff       	callq  400c50 <puts@plt>
  401c4a:	b8 00 00 00 00       	mov    $0x0,%eax
  401c4f:	e8 e7 fc ff ff       	callq  40193b <check_fail>
  401c54:	bf e0 31 40 00       	mov    $0x4031e0,%edi
  401c59:	e8 f2 ef ff ff       	callq  400c50 <puts@plt>
  401c5e:	bf 7f 30 40 00       	mov    $0x40307f,%edi
  401c63:	e8 e8 ef ff ff       	callq  400c50 <puts@plt>
  401c68:	be 00 00 00 00       	mov    $0x0,%esi
  401c6d:	bf 00 00 00 00       	mov    $0x0,%edi
  401c72:	e8 45 fd ff ff       	callq  4019bc <notify_server>
  401c77:	bf 01 00 00 00       	mov    $0x1,%edi
  401c7c:	e8 6f f1 ff ff       	callq  400df0 <exit@plt>

0000000000401c81 <seghandler>:
  401c81:	48 83 ec 08          	sub    $0x8,%rsp
  401c85:	83 3d 7c 28 20 00 00 	cmpl   $0x0,0x20287c(%rip)        # 604508 <is_checker>
  401c8c:	74 14                	je     401ca2 <seghandler+0x21>
  401c8e:	bf 95 30 40 00       	mov    $0x403095,%edi
  401c93:	e8 b8 ef ff ff       	callq  400c50 <puts@plt>
  401c98:	b8 00 00 00 00       	mov    $0x0,%eax
  401c9d:	e8 99 fc ff ff       	callq  40193b <check_fail>
  401ca2:	bf 00 32 40 00       	mov    $0x403200,%edi
  401ca7:	e8 a4 ef ff ff       	callq  400c50 <puts@plt>
  401cac:	bf 7f 30 40 00       	mov    $0x40307f,%edi
  401cb1:	e8 9a ef ff ff       	callq  400c50 <puts@plt>
  401cb6:	be 00 00 00 00       	mov    $0x0,%esi
  401cbb:	bf 00 00 00 00       	mov    $0x0,%edi
  401cc0:	e8 f7 fc ff ff       	callq  4019bc <notify_server>
  401cc5:	bf 01 00 00 00       	mov    $0x1,%edi
  401cca:	e8 21 f1 ff ff       	callq  400df0 <exit@plt>

0000000000401ccf <illegalhandler>:
  401ccf:	48 83 ec 08          	sub    $0x8,%rsp
  401cd3:	83 3d 2e 28 20 00 00 	cmpl   $0x0,0x20282e(%rip)        # 604508 <is_checker>
  401cda:	74 14                	je     401cf0 <illegalhandler+0x21>
  401cdc:	bf a8 30 40 00       	mov    $0x4030a8,%edi
  401ce1:	e8 6a ef ff ff       	callq  400c50 <puts@plt>
  401ce6:	b8 00 00 00 00       	mov    $0x0,%eax
  401ceb:	e8 4b fc ff ff       	callq  40193b <check_fail>
  401cf0:	bf 28 32 40 00       	mov    $0x403228,%edi
  401cf5:	e8 56 ef ff ff       	callq  400c50 <puts@plt>
  401cfa:	bf 7f 30 40 00       	mov    $0x40307f,%edi
  401cff:	e8 4c ef ff ff       	callq  400c50 <puts@plt>
  401d04:	be 00 00 00 00       	mov    $0x0,%esi
  401d09:	bf 00 00 00 00       	mov    $0x0,%edi
  401d0e:	e8 a9 fc ff ff       	callq  4019bc <notify_server>
  401d13:	bf 01 00 00 00       	mov    $0x1,%edi
  401d18:	e8 d3 f0 ff ff       	callq  400df0 <exit@plt>

0000000000401d1d <sigalrmhandler>:
  401d1d:	48 83 ec 08          	sub    $0x8,%rsp
  401d21:	83 3d e0 27 20 00 00 	cmpl   $0x0,0x2027e0(%rip)        # 604508 <is_checker>
  401d28:	74 14                	je     401d3e <sigalrmhandler+0x21>
  401d2a:	bf bc 30 40 00       	mov    $0x4030bc,%edi
  401d2f:	e8 1c ef ff ff       	callq  400c50 <puts@plt>
  401d34:	b8 00 00 00 00       	mov    $0x0,%eax
  401d39:	e8 fd fb ff ff       	callq  40193b <check_fail>
  401d3e:	be 05 00 00 00       	mov    $0x5,%esi
  401d43:	bf 58 32 40 00       	mov    $0x403258,%edi
  401d48:	b8 00 00 00 00       	mov    $0x0,%eax
  401d4d:	e8 2e ef ff ff       	callq  400c80 <printf@plt>
  401d52:	be 00 00 00 00       	mov    $0x0,%esi
  401d57:	bf 00 00 00 00       	mov    $0x0,%edi
  401d5c:	e8 5b fc ff ff       	callq  4019bc <notify_server>
  401d61:	bf 01 00 00 00       	mov    $0x1,%edi
  401d66:	e8 85 f0 ff ff       	callq  400df0 <exit@plt>

0000000000401d6b <launch>:
  401d6b:	55                   	push   %rbp
  401d6c:	48 89 e5             	mov    %rsp,%rbp
  401d6f:	48 89 fa             	mov    %rdi,%rdx
  401d72:	48 8d 47 1e          	lea    0x1e(%rdi),%rax
  401d76:	48 83 e0 f0          	and    $0xfffffffffffffff0,%rax
  401d7a:	48 29 c4             	sub    %rax,%rsp
  401d7d:	48 8d 7c 24 0f       	lea    0xf(%rsp),%rdi
  401d82:	48 83 e7 f0          	and    $0xfffffffffffffff0,%rdi
  401d86:	be f4 00 00 00       	mov    $0xf4,%esi
  401d8b:	e8 00 ef ff ff       	callq  400c90 <memset@plt>
  401d90:	48 8b 05 29 27 20 00 	mov    0x202729(%rip),%rax        # 6044c0 <stdin@@GLIBC_2.2.5>
  401d97:	48 39 05 52 27 20 00 	cmp    %rax,0x202752(%rip)        # 6044f0 <infile>
  401d9e:	75 0f                	jne    401daf <launch+0x44>
  401da0:	bf c4 30 40 00       	mov    $0x4030c4,%edi
  401da5:	b8 00 00 00 00       	mov    $0x0,%eax
  401daa:	e8 d1 ee ff ff       	callq  400c80 <printf@plt>
  401daf:	c7 05 43 27 20 00 00 	movl   $0x0,0x202743(%rip)        # 6044fc <vlevel>
  401db6:	00 00 00 
  401db9:	b8 00 00 00 00       	mov    $0x0,%eax
  401dbe:	e8 dd fa ff ff       	callq  4018a0 <test>
  401dc3:	83 3d 3e 27 20 00 00 	cmpl   $0x0,0x20273e(%rip)        # 604508 <is_checker>
  401dca:	74 14                	je     401de0 <launch+0x75>
  401dcc:	bf d1 30 40 00       	mov    $0x4030d1,%edi
  401dd1:	e8 7a ee ff ff       	callq  400c50 <puts@plt>
  401dd6:	b8 00 00 00 00       	mov    $0x0,%eax
  401ddb:	e8 5b fb ff ff       	callq  40193b <check_fail>
  401de0:	bf dc 30 40 00       	mov    $0x4030dc,%edi
  401de5:	e8 66 ee ff ff       	callq  400c50 <puts@plt>
  401dea:	c9                   	leaveq 
  401deb:	c3                   	retq   

0000000000401dec <stable_launch>:
  401dec:	53                   	push   %rbx
  401ded:	48 89 3d f4 26 20 00 	mov    %rdi,0x2026f4(%rip)        # 6044e8 <global_offset>
  401df4:	41 b9 00 00 00 00    	mov    $0x0,%r9d
  401dfa:	41 b8 00 00 00 00    	mov    $0x0,%r8d
  401e00:	b9 32 01 00 00       	mov    $0x132,%ecx
  401e05:	ba 07 00 00 00       	mov    $0x7,%edx
  401e0a:	be 00 00 10 00       	mov    $0x100000,%esi
  401e0f:	bf 00 60 58 55       	mov    $0x55586000,%edi
  401e14:	e8 57 ee ff ff       	callq  400c70 <mmap@plt>
  401e19:	48 89 c3             	mov    %rax,%rbx
  401e1c:	48 3d 00 60 58 55    	cmp    $0x55586000,%rax
  401e22:	74 32                	je     401e56 <stable_launch+0x6a>
  401e24:	be 00 00 10 00       	mov    $0x100000,%esi
  401e29:	48 89 c7             	mov    %rax,%rdi
  401e2c:	e8 4f ef ff ff       	callq  400d80 <munmap@plt>
  401e31:	ba 00 60 58 55       	mov    $0x55586000,%edx
  401e36:	be 90 32 40 00       	mov    $0x403290,%esi
  401e3b:	48 8b 3d 8e 26 20 00 	mov    0x20268e(%rip),%rdi        # 6044d0 <stderr@@GLIBC_2.2.5>
  401e42:	b8 00 00 00 00       	mov    $0x0,%eax
  401e47:	e8 b4 ee ff ff       	callq  400d00 <fprintf@plt>
  401e4c:	bf 01 00 00 00       	mov    $0x1,%edi
  401e51:	e8 9a ef ff ff       	callq  400df0 <exit@plt>
  401e56:	48 8d 90 f8 ff 0f 00 	lea    0xffff8(%rax),%rdx
  401e5d:	48 89 15 cc 32 20 00 	mov    %rdx,0x2032cc(%rip)        # 605130 <stack_top>
  401e64:	48 89 e0             	mov    %rsp,%rax
  401e67:	48 89 d4             	mov    %rdx,%rsp
  401e6a:	48 89 c2             	mov    %rax,%rdx
  401e6d:	48 89 15 6c 26 20 00 	mov    %rdx,0x20266c(%rip)        # 6044e0 <global_save_stack>
  401e74:	48 8b 3d 6d 26 20 00 	mov    0x20266d(%rip),%rdi        # 6044e8 <global_offset>
  401e7b:	e8 eb fe ff ff       	callq  401d6b <launch>
  401e80:	48 8b 05 59 26 20 00 	mov    0x202659(%rip),%rax        # 6044e0 <global_save_stack>
  401e87:	48 89 c4             	mov    %rax,%rsp
  401e8a:	be 00 00 10 00       	mov    $0x100000,%esi
  401e8f:	48 89 df             	mov    %rbx,%rdi
  401e92:	e8 e9 ee ff ff       	callq  400d80 <munmap@plt>
  401e97:	5b                   	pop    %rbx
  401e98:	c3                   	retq   
  401e99:	0f 1f 80 00 00 00 00 	nopl   0x0(%rax)

0000000000401ea0 <rio_readinitb>:
  401ea0:	89 37                	mov    %esi,(%rdi)
  401ea2:	c7 47 04 00 00 00 00 	movl   $0x0,0x4(%rdi)
  401ea9:	48 8d 47 10          	lea    0x10(%rdi),%rax
  401ead:	48 89 47 08          	mov    %rax,0x8(%rdi)
  401eb1:	c3                   	retq   

0000000000401eb2 <sigalrm_handler>:
  401eb2:	48 83 ec 08          	sub    $0x8,%rsp
  401eb6:	ba 00 00 00 00       	mov    $0x0,%edx
  401ebb:	be d0 32 40 00       	mov    $0x4032d0,%esi
  401ec0:	48 8b 3d 09 26 20 00 	mov    0x202609(%rip),%rdi        # 6044d0 <stderr@@GLIBC_2.2.5>
  401ec7:	b8 00 00 00 00       	mov    $0x0,%eax
  401ecc:	e8 2f ee ff ff       	callq  400d00 <fprintf@plt>
  401ed1:	bf 01 00 00 00       	mov    $0x1,%edi
  401ed6:	e8 15 ef ff ff       	callq  400df0 <exit@plt>

0000000000401edb <urlencode>:
  401edb:	41 54                	push   %r12
  401edd:	55                   	push   %rbp
  401ede:	53                   	push   %rbx
  401edf:	48 83 ec 10          	sub    $0x10,%rsp
  401ee3:	48 89 fb             	mov    %rdi,%rbx
  401ee6:	48 89 f5             	mov    %rsi,%rbp
  401ee9:	b8 00 00 00 00       	mov    $0x0,%eax
  401eee:	48 c7 c1 ff ff ff ff 	mov    $0xffffffffffffffff,%rcx
  401ef5:	f2 ae                	repnz scas %es:(%rdi),%al
  401ef7:	48 f7 d1             	not    %rcx
  401efa:	8d 41 ff             	lea    -0x1(%rcx),%eax
  401efd:	e9 93 00 00 00       	jmpq   401f95 <urlencode+0xba>
  401f02:	0f b6 13             	movzbl (%rbx),%edx
  401f05:	80 fa 2a             	cmp    $0x2a,%dl
  401f08:	0f 94 c1             	sete   %cl
  401f0b:	80 fa 2d             	cmp    $0x2d,%dl
  401f0e:	0f 94 c0             	sete   %al
  401f11:	08 c1                	or     %al,%cl
  401f13:	75 1f                	jne    401f34 <urlencode+0x59>
  401f15:	80 fa 2e             	cmp    $0x2e,%dl
  401f18:	74 1a                	je     401f34 <urlencode+0x59>
  401f1a:	80 fa 5f             	cmp    $0x5f,%dl
  401f1d:	74 15                	je     401f34 <urlencode+0x59>
  401f1f:	8d 42 d0             	lea    -0x30(%rdx),%eax
  401f22:	3c 09                	cmp    $0x9,%al
  401f24:	76 0e                	jbe    401f34 <urlencode+0x59>
  401f26:	8d 42 bf             	lea    -0x41(%rdx),%eax
  401f29:	3c 19                	cmp    $0x19,%al
  401f2b:	76 07                	jbe    401f34 <urlencode+0x59>
  401f2d:	8d 42 9f             	lea    -0x61(%rdx),%eax
  401f30:	3c 19                	cmp    $0x19,%al
  401f32:	77 09                	ja     401f3d <urlencode+0x62>
  401f34:	88 55 00             	mov    %dl,0x0(%rbp)
  401f37:	48 8d 6d 01          	lea    0x1(%rbp),%rbp
  401f3b:	eb 51                	jmp    401f8e <urlencode+0xb3>
  401f3d:	80 fa 20             	cmp    $0x20,%dl
  401f40:	75 0a                	jne    401f4c <urlencode+0x71>
  401f42:	c6 45 00 2b          	movb   $0x2b,0x0(%rbp)
  401f46:	48 8d 6d 01          	lea    0x1(%rbp),%rbp
  401f4a:	eb 42                	jmp    401f8e <urlencode+0xb3>
  401f4c:	8d 42 e0             	lea    -0x20(%rdx),%eax
  401f4f:	3c 5f                	cmp    $0x5f,%al
  401f51:	0f 96 c1             	setbe  %cl
  401f54:	80 fa 09             	cmp    $0x9,%dl
  401f57:	0f 94 c0             	sete   %al
  401f5a:	08 c1                	or     %al,%cl
  401f5c:	74 45                	je     401fa3 <urlencode+0xc8>
  401f5e:	0f b6 d2             	movzbl %dl,%edx
  401f61:	be 68 33 40 00       	mov    $0x403368,%esi
  401f66:	48 89 e7             	mov    %rsp,%rdi
  401f69:	b8 00 00 00 00       	mov    $0x0,%eax
  401f6e:	e8 6d ee ff ff       	callq  400de0 <sprintf@plt>
  401f73:	0f b6 04 24          	movzbl (%rsp),%eax
  401f77:	88 45 00             	mov    %al,0x0(%rbp)
  401f7a:	0f b6 44 24 01       	movzbl 0x1(%rsp),%eax
  401f7f:	88 45 01             	mov    %al,0x1(%rbp)
  401f82:	0f b6 44 24 02       	movzbl 0x2(%rsp),%eax
  401f87:	88 45 02             	mov    %al,0x2(%rbp)
  401f8a:	48 8d 6d 03          	lea    0x3(%rbp),%rbp
  401f8e:	48 83 c3 01          	add    $0x1,%rbx
  401f92:	44 89 e0             	mov    %r12d,%eax
  401f95:	44 8d 60 ff          	lea    -0x1(%rax),%r12d
  401f99:	85 c0                	test   %eax,%eax
  401f9b:	0f 85 61 ff ff ff    	jne    401f02 <urlencode+0x27>
  401fa1:	eb 05                	jmp    401fa8 <urlencode+0xcd>
  401fa3:	b8 ff ff ff ff       	mov    $0xffffffff,%eax
  401fa8:	48 83 c4 10          	add    $0x10,%rsp
  401fac:	5b                   	pop    %rbx
  401fad:	5d                   	pop    %rbp
  401fae:	41 5c                	pop    %r12
  401fb0:	c3                   	retq   

0000000000401fb1 <rio_writen>:
  401fb1:	41 55                	push   %r13
  401fb3:	41 54                	push   %r12
  401fb5:	55                   	push   %rbp
  401fb6:	53                   	push   %rbx
  401fb7:	48 83 ec 08          	sub    $0x8,%rsp
  401fbb:	41 89 fc             	mov    %edi,%r12d
  401fbe:	48 89 f5             	mov    %rsi,%rbp
  401fc1:	49 89 d5             	mov    %rdx,%r13
  401fc4:	48 89 d3             	mov    %rdx,%rbx
  401fc7:	eb 28                	jmp    401ff1 <rio_writen+0x40>
  401fc9:	48 89 da             	mov    %rbx,%rdx
  401fcc:	48 89 ee             	mov    %rbp,%rsi
  401fcf:	44 89 e7             	mov    %r12d,%edi
  401fd2:	e8 89 ec ff ff       	callq  400c60 <write@plt>
  401fd7:	48 85 c0             	test   %rax,%rax
  401fda:	7f 0f                	jg     401feb <rio_writen+0x3a>
  401fdc:	e8 2f ec ff ff       	callq  400c10 <__errno_location@plt>
  401fe1:	83 38 04             	cmpl   $0x4,(%rax)
  401fe4:	75 15                	jne    401ffb <rio_writen+0x4a>
  401fe6:	b8 00 00 00 00       	mov    $0x0,%eax
  401feb:	48 29 c3             	sub    %rax,%rbx
  401fee:	48 01 c5             	add    %rax,%rbp
  401ff1:	48 85 db             	test   %rbx,%rbx
  401ff4:	75 d3                	jne    401fc9 <rio_writen+0x18>
  401ff6:	4c 89 e8             	mov    %r13,%rax
  401ff9:	eb 07                	jmp    402002 <rio_writen+0x51>
  401ffb:	48 c7 c0 ff ff ff ff 	mov    $0xffffffffffffffff,%rax
  402002:	48 83 c4 08          	add    $0x8,%rsp
  402006:	5b                   	pop    %rbx
  402007:	5d                   	pop    %rbp
  402008:	41 5c                	pop    %r12
  40200a:	41 5d                	pop    %r13
  40200c:	c3                   	retq   

000000000040200d <rio_read>:
  40200d:	41 56                	push   %r14
  40200f:	41 55                	push   %r13
  402011:	41 54                	push   %r12
  402013:	55                   	push   %rbp
  402014:	53                   	push   %rbx
  402015:	48 89 fb             	mov    %rdi,%rbx
  402018:	49 89 f6             	mov    %rsi,%r14
  40201b:	49 89 d5             	mov    %rdx,%r13
  40201e:	4c 8d 67 10          	lea    0x10(%rdi),%r12
  402022:	eb 2a                	jmp    40204e <rio_read+0x41>
  402024:	ba 00 20 00 00       	mov    $0x2000,%edx
  402029:	4c 89 e6             	mov    %r12,%rsi
  40202c:	8b 3b                	mov    (%rbx),%edi
  40202e:	e8 8d ec ff ff       	callq  400cc0 <read@plt>
  402033:	89 43 04             	mov    %eax,0x4(%rbx)
  402036:	85 c0                	test   %eax,%eax
  402038:	79 0c                	jns    402046 <rio_read+0x39>
  40203a:	e8 d1 eb ff ff       	callq  400c10 <__errno_location@plt>
  40203f:	83 38 04             	cmpl   $0x4,(%rax)
  402042:	74 0a                	je     40204e <rio_read+0x41>
  402044:	eb 37                	jmp    40207d <rio_read+0x70>
  402046:	85 c0                	test   %eax,%eax
  402048:	74 3c                	je     402086 <rio_read+0x79>
  40204a:	4c 89 63 08          	mov    %r12,0x8(%rbx)
  40204e:	8b 6b 04             	mov    0x4(%rbx),%ebp
  402051:	85 ed                	test   %ebp,%ebp
  402053:	7e cf                	jle    402024 <rio_read+0x17>
  402055:	89 e8                	mov    %ebp,%eax
  402057:	4c 39 e8             	cmp    %r13,%rax
  40205a:	72 03                	jb     40205f <rio_read+0x52>
  40205c:	44 89 ed             	mov    %r13d,%ebp
  40205f:	4c 63 e5             	movslq %ebp,%r12
  402062:	48 8b 73 08          	mov    0x8(%rbx),%rsi
  402066:	4c 89 e2             	mov    %r12,%rdx
  402069:	4c 89 f7             	mov    %r14,%rdi
  40206c:	e8 bf ec ff ff       	callq  400d30 <memcpy@plt>
  402071:	4c 01 63 08          	add    %r12,0x8(%rbx)
  402075:	29 6b 04             	sub    %ebp,0x4(%rbx)
  402078:	4c 89 e0             	mov    %r12,%rax
  40207b:	eb 0e                	jmp    40208b <rio_read+0x7e>
  40207d:	48 c7 c0 ff ff ff ff 	mov    $0xffffffffffffffff,%rax
  402084:	eb 05                	jmp    40208b <rio_read+0x7e>
  402086:	b8 00 00 00 00       	mov    $0x0,%eax
  40208b:	5b                   	pop    %rbx
  40208c:	5d                   	pop    %rbp
  40208d:	41 5c                	pop    %r12
  40208f:	41 5d                	pop    %r13
  402091:	41 5e                	pop    %r14
  402093:	c3                   	retq   

0000000000402094 <rio_readlineb>:
  402094:	41 55                	push   %r13
  402096:	41 54                	push   %r12
  402098:	55                   	push   %rbp
  402099:	53                   	push   %rbx
  40209a:	48 83 ec 18          	sub    $0x18,%rsp
  40209e:	49 89 fd             	mov    %rdi,%r13
  4020a1:	48 89 f5             	mov    %rsi,%rbp
  4020a4:	49 89 d4             	mov    %rdx,%r12
  4020a7:	bb 01 00 00 00       	mov    $0x1,%ebx
  4020ac:	eb 3d                	jmp    4020eb <rio_readlineb+0x57>
  4020ae:	ba 01 00 00 00       	mov    $0x1,%edx
  4020b3:	48 8d 74 24 0f       	lea    0xf(%rsp),%rsi
  4020b8:	4c 89 ef             	mov    %r13,%rdi
  4020bb:	e8 4d ff ff ff       	callq  40200d <rio_read>
  4020c0:	83 f8 01             	cmp    $0x1,%eax
  4020c3:	75 12                	jne    4020d7 <rio_readlineb+0x43>
  4020c5:	48 8d 55 01          	lea    0x1(%rbp),%rdx
  4020c9:	0f b6 44 24 0f       	movzbl 0xf(%rsp),%eax
  4020ce:	88 45 00             	mov    %al,0x0(%rbp)
  4020d1:	3c 0a                	cmp    $0xa,%al
  4020d3:	75 0f                	jne    4020e4 <rio_readlineb+0x50>
  4020d5:	eb 1b                	jmp    4020f2 <rio_readlineb+0x5e>
  4020d7:	85 c0                	test   %eax,%eax
  4020d9:	75 23                	jne    4020fe <rio_readlineb+0x6a>
  4020db:	48 83 fb 01          	cmp    $0x1,%rbx
  4020df:	90                   	nop
  4020e0:	75 13                	jne    4020f5 <rio_readlineb+0x61>
  4020e2:	eb 23                	jmp    402107 <rio_readlineb+0x73>
  4020e4:	48 83 c3 01          	add    $0x1,%rbx
  4020e8:	48 89 d5             	mov    %rdx,%rbp
  4020eb:	4c 39 e3             	cmp    %r12,%rbx
  4020ee:	72 be                	jb     4020ae <rio_readlineb+0x1a>
  4020f0:	eb 03                	jmp    4020f5 <rio_readlineb+0x61>
  4020f2:	48 89 d5             	mov    %rdx,%rbp
  4020f5:	c6 45 00 00          	movb   $0x0,0x0(%rbp)
  4020f9:	48 89 d8             	mov    %rbx,%rax
  4020fc:	eb 0e                	jmp    40210c <rio_readlineb+0x78>
  4020fe:	48 c7 c0 ff ff ff ff 	mov    $0xffffffffffffffff,%rax
  402105:	eb 05                	jmp    40210c <rio_readlineb+0x78>
  402107:	b8 00 00 00 00       	mov    $0x0,%eax
  40210c:	48 83 c4 18          	add    $0x18,%rsp
  402110:	5b                   	pop    %rbx
  402111:	5d                   	pop    %rbp
  402112:	41 5c                	pop    %r12
  402114:	41 5d                	pop    %r13
  402116:	c3                   	retq   

0000000000402117 <submitr>:
  402117:	41 57                	push   %r15
  402119:	41 56                	push   %r14
  40211b:	41 55                	push   %r13
  40211d:	41 54                	push   %r12
  40211f:	55                   	push   %rbp
  402120:	53                   	push   %rbx
  402121:	48 81 ec 48 a0 00 00 	sub    $0xa048,%rsp
  402128:	49 89 fc             	mov    %rdi,%r12
  40212b:	89 74 24 04          	mov    %esi,0x4(%rsp)
  40212f:	49 89 d7             	mov    %rdx,%r15
  402132:	49 89 ce             	mov    %rcx,%r14
  402135:	4c 89 44 24 08       	mov    %r8,0x8(%rsp)
  40213a:	4d 89 cd             	mov    %r9,%r13
  40213d:	48 8b 9c 24 80 a0 00 	mov    0xa080(%rsp),%rbx
  402144:	00 
  402145:	c7 84 24 1c 20 00 00 	movl   $0x0,0x201c(%rsp)
  40214c:	00 00 00 00 
  402150:	ba 00 00 00 00       	mov    $0x0,%edx
  402155:	be 01 00 00 00       	mov    $0x1,%esi
  40215a:	bf 02 00 00 00       	mov    $0x2,%edi
  40215f:	e8 ac ec ff ff       	callq  400e10 <socket@plt>
  402164:	89 c5                	mov    %eax,%ebp
  402166:	85 c0                	test   %eax,%eax
  402168:	79 4e                	jns    4021b8 <submitr+0xa1>
  40216a:	48 b8 45 72 72 6f 72 	movabs $0x43203a726f727245,%rax
  402171:	3a 20 43 
  402174:	48 89 03             	mov    %rax,(%rbx)
  402177:	48 b8 6c 69 65 6e 74 	movabs $0x6e7520746e65696c,%rax
  40217e:	20 75 6e 
  402181:	48 89 43 08          	mov    %rax,0x8(%rbx)
  402185:	48 b8 61 62 6c 65 20 	movabs $0x206f7420656c6261,%rax
  40218c:	74 6f 20 
  40218f:	48 89 43 10          	mov    %rax,0x10(%rbx)
  402193:	48 b8 63 72 65 61 74 	movabs $0x7320657461657263,%rax
  40219a:	65 20 73 
  40219d:	48 89 43 18          	mov    %rax,0x18(%rbx)
  4021a1:	c7 43 20 6f 63 6b 65 	movl   $0x656b636f,0x20(%rbx)
  4021a8:	66 c7 43 24 74 00    	movw   $0x74,0x24(%rbx)
  4021ae:	b8 ff ff ff ff       	mov    $0xffffffff,%eax
  4021b3:	e9 68 06 00 00       	jmpq   402820 <submitr+0x709>
  4021b8:	4c 89 e7             	mov    %r12,%rdi
  4021bb:	e8 30 eb ff ff       	callq  400cf0 <gethostbyname@plt>
  4021c0:	48 85 c0             	test   %rax,%rax
  4021c3:	75 67                	jne    40222c <submitr+0x115>
  4021c5:	48 b8 45 72 72 6f 72 	movabs $0x44203a726f727245,%rax
  4021cc:	3a 20 44 
  4021cf:	48 89 03             	mov    %rax,(%rbx)
  4021d2:	48 b8 4e 53 20 69 73 	movabs $0x6e7520736920534e,%rax
  4021d9:	20 75 6e 
  4021dc:	48 89 43 08          	mov    %rax,0x8(%rbx)
  4021e0:	48 b8 61 62 6c 65 20 	movabs $0x206f7420656c6261,%rax
  4021e7:	74 6f 20 
  4021ea:	48 89 43 10          	mov    %rax,0x10(%rbx)
  4021ee:	48 b8 72 65 73 6f 6c 	movabs $0x2065766c6f736572,%rax
  4021f5:	76 65 20 
  4021f8:	48 89 43 18          	mov    %rax,0x18(%rbx)
  4021fc:	48 b8 73 65 72 76 65 	movabs $0x6120726576726573,%rax
  402203:	72 20 61 
  402206:	48 89 43 20          	mov    %rax,0x20(%rbx)
  40220a:	c7 43 28 64 64 72 65 	movl   $0x65726464,0x28(%rbx)
  402211:	66 c7 43 2c 73 73    	movw   $0x7373,0x2c(%rbx)
  402217:	c6 43 2e 00          	movb   $0x0,0x2e(%rbx)
  40221b:	89 ef                	mov    %ebp,%edi
  40221d:	e8 8e ea ff ff       	callq  400cb0 <close@plt>
  402222:	b8 ff ff ff ff       	mov    $0xffffffff,%eax
  402227:	e9 f4 05 00 00       	jmpq   402820 <submitr+0x709>
  40222c:	48 c7 84 24 30 a0 00 	movq   $0x0,0xa030(%rsp)
  402233:	00 00 00 00 00 
  402238:	48 c7 84 24 38 a0 00 	movq   $0x0,0xa038(%rsp)
  40223f:	00 00 00 00 00 
  402244:	66 c7 84 24 30 a0 00 	movw   $0x2,0xa030(%rsp)
  40224b:	00 02 00 
  40224e:	48 8b 48 18          	mov    0x18(%rax),%rcx
  402252:	48 63 50 14          	movslq 0x14(%rax),%rdx
  402256:	48 8d b4 24 34 a0 00 	lea    0xa034(%rsp),%rsi
  40225d:	00 
  40225e:	48 8b 39             	mov    (%rcx),%rdi
  402261:	e8 2a eb ff ff       	callq  400d90 <bcopy@plt>
  402266:	0f b7 44 24 04       	movzwl 0x4(%rsp),%eax
  40226b:	66 c1 c8 08          	ror    $0x8,%ax
  40226f:	66 89 84 24 32 a0 00 	mov    %ax,0xa032(%rsp)
  402276:	00 
  402277:	ba 10 00 00 00       	mov    $0x10,%edx
  40227c:	48 8d b4 24 30 a0 00 	lea    0xa030(%rsp),%rsi
  402283:	00 
  402284:	89 ef                	mov    %ebp,%edi
  402286:	e8 75 eb ff ff       	callq  400e00 <connect@plt>
  40228b:	85 c0                	test   %eax,%eax
  40228d:	79 59                	jns    4022e8 <submitr+0x1d1>
  40228f:	48 b8 45 72 72 6f 72 	movabs $0x55203a726f727245,%rax
  402296:	3a 20 55 
  402299:	48 89 03             	mov    %rax,(%rbx)
  40229c:	48 b8 6e 61 62 6c 65 	movabs $0x6f7420656c62616e,%rax
  4022a3:	20 74 6f 
  4022a6:	48 89 43 08          	mov    %rax,0x8(%rbx)
  4022aa:	48 b8 20 63 6f 6e 6e 	movabs $0x7463656e6e6f6320,%rax
  4022b1:	65 63 74 
  4022b4:	48 89 43 10          	mov    %rax,0x10(%rbx)
  4022b8:	48 b8 20 74 6f 20 74 	movabs $0x20656874206f7420,%rax
  4022bf:	68 65 20 
  4022c2:	48 89 43 18          	mov    %rax,0x18(%rbx)
  4022c6:	c7 43 20 73 65 72 76 	movl   $0x76726573,0x20(%rbx)
  4022cd:	66 c7 43 24 65 72    	movw   $0x7265,0x24(%rbx)
  4022d3:	c6 43 26 00          	movb   $0x0,0x26(%rbx)
  4022d7:	89 ef                	mov    %ebp,%edi
  4022d9:	e8 d2 e9 ff ff       	callq  400cb0 <close@plt>
  4022de:	b8 ff ff ff ff       	mov    $0xffffffff,%eax
  4022e3:	e9 38 05 00 00       	jmpq   402820 <submitr+0x709>
  4022e8:	48 c7 c2 ff ff ff ff 	mov    $0xffffffffffffffff,%rdx
  4022ef:	4c 89 ef             	mov    %r13,%rdi
  4022f2:	b8 00 00 00 00       	mov    $0x0,%eax
  4022f7:	48 89 d1             	mov    %rdx,%rcx
  4022fa:	f2 ae                	repnz scas %es:(%rdi),%al
  4022fc:	48 f7 d1             	not    %rcx
  4022ff:	48 89 ce             	mov    %rcx,%rsi
  402302:	4c 89 ff             	mov    %r15,%rdi
  402305:	48 89 d1             	mov    %rdx,%rcx
  402308:	f2 ae                	repnz scas %es:(%rdi),%al
  40230a:	48 f7 d1             	not    %rcx
  40230d:	49 89 c8             	mov    %rcx,%r8
  402310:	4c 89 f7             	mov    %r14,%rdi
  402313:	48 89 d1             	mov    %rdx,%rcx
  402316:	f2 ae                	repnz scas %es:(%rdi),%al
  402318:	49 29 c8             	sub    %rcx,%r8
  40231b:	48 8b 7c 24 08       	mov    0x8(%rsp),%rdi
  402320:	48 89 d1             	mov    %rdx,%rcx
  402323:	f2 ae                	repnz scas %es:(%rdi),%al
  402325:	49 29 c8             	sub    %rcx,%r8
  402328:	48 8d 44 76 fd       	lea    -0x3(%rsi,%rsi,2),%rax
  40232d:	49 8d 44 00 7b       	lea    0x7b(%r8,%rax,1),%rax
  402332:	48 3d 00 20 00 00    	cmp    $0x2000,%rax
  402338:	76 72                	jbe    4023ac <submitr+0x295>
  40233a:	48 b8 45 72 72 6f 72 	movabs $0x52203a726f727245,%rax
  402341:	3a 20 52 
  402344:	48 89 03             	mov    %rax,(%rbx)
  402347:	48 b8 65 73 75 6c 74 	movabs $0x747320746c757365,%rax
  40234e:	20 73 74 
  402351:	48 89 43 08          	mov    %rax,0x8(%rbx)
  402355:	48 b8 72 69 6e 67 20 	movabs $0x6f6f7420676e6972,%rax
  40235c:	74 6f 6f 
  40235f:	48 89 43 10          	mov    %rax,0x10(%rbx)
  402363:	48 b8 20 6c 61 72 67 	movabs $0x202e656772616c20,%rax
  40236a:	65 2e 20 
  40236d:	48 89 43 18          	mov    %rax,0x18(%rbx)
  402371:	48 b8 49 6e 63 72 65 	movabs $0x6573616572636e49,%rax
  402378:	61 73 65 
  40237b:	48 89 43 20          	mov    %rax,0x20(%rbx)
  40237f:	48 b8 20 53 55 42 4d 	movabs $0x5254494d42555320,%rax
  402386:	49 54 52 
  402389:	48 89 43 28          	mov    %rax,0x28(%rbx)
  40238d:	48 b8 5f 4d 41 58 42 	movabs $0x46554258414d5f,%rax
  402394:	55 46 00 
  402397:	48 89 43 30          	mov    %rax,0x30(%rbx)
  40239b:	89 ef                	mov    %ebp,%edi
  40239d:	e8 0e e9 ff ff       	callq  400cb0 <close@plt>
  4023a2:	b8 ff ff ff ff       	mov    $0xffffffff,%eax
  4023a7:	e9 74 04 00 00       	jmpq   402820 <submitr+0x709>
  4023ac:	48 8d b4 24 20 40 00 	lea    0x4020(%rsp),%rsi
  4023b3:	00 
  4023b4:	b9 00 04 00 00       	mov    $0x400,%ecx
  4023b9:	b8 00 00 00 00       	mov    $0x0,%eax
  4023be:	48 89 f7             	mov    %rsi,%rdi
  4023c1:	f3 48 ab             	rep stos %rax,%es:(%rdi)
  4023c4:	4c 89 ef             	mov    %r13,%rdi
  4023c7:	e8 0f fb ff ff       	callq  401edb <urlencode>
  4023cc:	85 c0                	test   %eax,%eax
  4023ce:	0f 89 8a 00 00 00    	jns    40245e <submitr+0x347>
  4023d4:	48 b8 45 72 72 6f 72 	movabs $0x52203a726f727245,%rax
  4023db:	3a 20 52 
  4023de:	48 89 03             	mov    %rax,(%rbx)
  4023e1:	48 b8 65 73 75 6c 74 	movabs $0x747320746c757365,%rax
  4023e8:	20 73 74 
  4023eb:	48 89 43 08          	mov    %rax,0x8(%rbx)
  4023ef:	48 b8 72 69 6e 67 20 	movabs $0x6e6f6320676e6972,%rax
  4023f6:	63 6f 6e 
  4023f9:	48 89 43 10          	mov    %rax,0x10(%rbx)
  4023fd:	48 b8 74 61 69 6e 73 	movabs $0x6e6120736e696174,%rax
  402404:	20 61 6e 
  402407:	48 89 43 18          	mov    %rax,0x18(%rbx)
  40240b:	48 b8 20 69 6c 6c 65 	movabs $0x6c6167656c6c6920,%rax
  402412:	67 61 6c 
  402415:	48 89 43 20          	mov    %rax,0x20(%rbx)
  402419:	48 b8 20 6f 72 20 75 	movabs $0x72706e7520726f20,%rax
  402420:	6e 70 72 
  402423:	48 89 43 28          	mov    %rax,0x28(%rbx)
  402427:	48 b8 69 6e 74 61 62 	movabs $0x20656c6261746e69,%rax
  40242e:	6c 65 20 
  402431:	48 89 43 30          	mov    %rax,0x30(%rbx)
  402435:	48 b8 63 68 61 72 61 	movabs $0x6574636172616863,%rax
  40243c:	63 74 65 
  40243f:	48 89 43 38          	mov    %rax,0x38(%rbx)
  402443:	66 c7 43 40 72 2e    	movw   $0x2e72,0x40(%rbx)
  402449:	c6 43 42 00          	movb   $0x0,0x42(%rbx)
  40244d:	89 ef                	mov    %ebp,%edi
  40244f:	e8 5c e8 ff ff       	callq  400cb0 <close@plt>
  402454:	b8 ff ff ff ff       	mov    $0xffffffff,%eax
  402459:	e9 c2 03 00 00       	jmpq   402820 <submitr+0x709>
  40245e:	4d 89 e1             	mov    %r12,%r9
  402461:	4c 8d 84 24 20 40 00 	lea    0x4020(%rsp),%r8
  402468:	00 
  402469:	4c 89 f9             	mov    %r15,%rcx
  40246c:	4c 89 f2             	mov    %r14,%rdx
  40246f:	be f8 32 40 00       	mov    $0x4032f8,%esi
  402474:	48 8d bc 24 20 60 00 	lea    0x6020(%rsp),%rdi
  40247b:	00 
  40247c:	b8 00 00 00 00       	mov    $0x0,%eax
  402481:	e8 5a e9 ff ff       	callq  400de0 <sprintf@plt>
  402486:	48 8d bc 24 20 60 00 	lea    0x6020(%rsp),%rdi
  40248d:	00 
  40248e:	b8 00 00 00 00       	mov    $0x0,%eax
  402493:	48 c7 c1 ff ff ff ff 	mov    $0xffffffffffffffff,%rcx
  40249a:	f2 ae                	repnz scas %es:(%rdi),%al
  40249c:	48 f7 d1             	not    %rcx
  40249f:	48 8d 51 ff          	lea    -0x1(%rcx),%rdx
  4024a3:	48 8d b4 24 20 60 00 	lea    0x6020(%rsp),%rsi
  4024aa:	00 
  4024ab:	89 ef                	mov    %ebp,%edi
  4024ad:	e8 ff fa ff ff       	callq  401fb1 <rio_writen>
  4024b2:	48 85 c0             	test   %rax,%rax
  4024b5:	79 6e                	jns    402525 <submitr+0x40e>
  4024b7:	48 b8 45 72 72 6f 72 	movabs $0x43203a726f727245,%rax
  4024be:	3a 20 43 
  4024c1:	48 89 03             	mov    %rax,(%rbx)
  4024c4:	48 b8 6c 69 65 6e 74 	movabs $0x6e7520746e65696c,%rax
  4024cb:	20 75 6e 
  4024ce:	48 89 43 08          	mov    %rax,0x8(%rbx)
  4024d2:	48 b8 61 62 6c 65 20 	movabs $0x206f7420656c6261,%rax
  4024d9:	74 6f 20 
  4024dc:	48 89 43 10          	mov    %rax,0x10(%rbx)
  4024e0:	48 b8 77 72 69 74 65 	movabs $0x6f74206574697277,%rax
  4024e7:	20 74 6f 
  4024ea:	48 89 43 18          	mov    %rax,0x18(%rbx)
  4024ee:	48 b8 20 74 68 65 20 	movabs $0x7365722065687420,%rax
  4024f5:	72 65 73 
  4024f8:	48 89 43 20          	mov    %rax,0x20(%rbx)
  4024fc:	48 b8 75 6c 74 20 73 	movabs $0x7672657320746c75,%rax
  402503:	65 72 76 
  402506:	48 89 43 28          	mov    %rax,0x28(%rbx)
  40250a:	66 c7 43 30 65 72    	movw   $0x7265,0x30(%rbx)
  402510:	c6 43 32 00          	movb   $0x0,0x32(%rbx)
  402514:	89 ef                	mov    %ebp,%edi
  402516:	e8 95 e7 ff ff       	callq  400cb0 <close@plt>
  40251b:	b8 ff ff ff ff       	mov    $0xffffffff,%eax
  402520:	e9 fb 02 00 00       	jmpq   402820 <submitr+0x709>
  402525:	89 ee                	mov    %ebp,%esi
  402527:	48 8d bc 24 20 80 00 	lea    0x8020(%rsp),%rdi
  40252e:	00 
  40252f:	e8 6c f9 ff ff       	callq  401ea0 <rio_readinitb>
  402534:	ba 00 20 00 00       	mov    $0x2000,%edx
  402539:	48 8d b4 24 20 60 00 	lea    0x6020(%rsp),%rsi
  402540:	00 
  402541:	48 8d bc 24 20 80 00 	lea    0x8020(%rsp),%rdi
  402548:	00 
  402549:	e8 46 fb ff ff       	callq  402094 <rio_readlineb>
  40254e:	48 85 c0             	test   %rax,%rax
  402551:	7f 7d                	jg     4025d0 <submitr+0x4b9>
  402553:	48 b8 45 72 72 6f 72 	movabs $0x43203a726f727245,%rax
  40255a:	3a 20 43 
  40255d:	48 89 03             	mov    %rax,(%rbx)
  402560:	48 b8 6c 69 65 6e 74 	movabs $0x6e7520746e65696c,%rax
  402567:	20 75 6e 
  40256a:	48 89 43 08          	mov    %rax,0x8(%rbx)
  40256e:	48 b8 61 62 6c 65 20 	movabs $0x206f7420656c6261,%rax
  402575:	74 6f 20 
  402578:	48 89 43 10          	mov    %rax,0x10(%rbx)
  40257c:	48 b8 72 65 61 64 20 	movabs $0x7269662064616572,%rax
  402583:	66 69 72 
  402586:	48 89 43 18          	mov    %rax,0x18(%rbx)
  40258a:	48 b8 73 74 20 68 65 	movabs $0x6564616568207473,%rax
  402591:	61 64 65 
  402594:	48 89 43 20          	mov    %rax,0x20(%rbx)
  402598:	48 b8 72 20 66 72 6f 	movabs $0x72206d6f72662072,%rax
  40259f:	6d 20 72 
  4025a2:	48 89 43 28          	mov    %rax,0x28(%rbx)
  4025a6:	48 b8 65 73 75 6c 74 	movabs $0x657320746c757365,%rax
  4025ad:	20 73 65 
  4025b0:	48 89 43 30          	mov    %rax,0x30(%rbx)
  4025b4:	c7 43 38 72 76 65 72 	movl   $0x72657672,0x38(%rbx)
  4025bb:	c6 43 3c 00          	movb   $0x0,0x3c(%rbx)
  4025bf:	89 ef                	mov    %ebp,%edi
  4025c1:	e8 ea e6 ff ff       	callq  400cb0 <close@plt>
  4025c6:	b8 ff ff ff ff       	mov    $0xffffffff,%eax
  4025cb:	e9 50 02 00 00       	jmpq   402820 <submitr+0x709>
  4025d0:	4c 8d 44 24 10       	lea    0x10(%rsp),%r8
  4025d5:	48 8d 8c 24 1c 20 00 	lea    0x201c(%rsp),%rcx
  4025dc:	00 
  4025dd:	48 8d 94 24 20 20 00 	lea    0x2020(%rsp),%rdx
  4025e4:	00 
  4025e5:	be 6f 33 40 00       	mov    $0x40336f,%esi
  4025ea:	48 8d bc 24 20 60 00 	lea    0x6020(%rsp),%rdi
  4025f1:	00 
  4025f2:	b8 00 00 00 00       	mov    $0x0,%eax
  4025f7:	e8 74 e7 ff ff       	callq  400d70 <__isoc99_sscanf@plt>
  4025fc:	e9 98 00 00 00       	jmpq   402699 <submitr+0x582>
  402601:	ba 00 20 00 00       	mov    $0x2000,%edx
  402606:	48 8d b4 24 20 60 00 	lea    0x6020(%rsp),%rsi
  40260d:	00 
  40260e:	48 8d bc 24 20 80 00 	lea    0x8020(%rsp),%rdi
  402615:	00 
  402616:	e8 79 fa ff ff       	callq  402094 <rio_readlineb>
  40261b:	48 85 c0             	test   %rax,%rax
  40261e:	7f 79                	jg     402699 <submitr+0x582>
  402620:	48 b8 45 72 72 6f 72 	movabs $0x43203a726f727245,%rax
  402627:	3a 20 43 
  40262a:	48 89 03             	mov    %rax,(%rbx)
  40262d:	48 b8 6c 69 65 6e 74 	movabs $0x6e7520746e65696c,%rax
  402634:	20 75 6e 
  402637:	48 89 43 08          	mov    %rax,0x8(%rbx)
  40263b:	48 b8 61 62 6c 65 20 	movabs $0x206f7420656c6261,%rax
  402642:	74 6f 20 
  402645:	48 89 43 10          	mov    %rax,0x10(%rbx)
  402649:	48 b8 72 65 61 64 20 	movabs $0x6165682064616572,%rax
  402650:	68 65 61 
  402653:	48 89 43 18          	mov    %rax,0x18(%rbx)
  402657:	48 b8 64 65 72 73 20 	movabs $0x6f72662073726564,%rax
  40265e:	66 72 6f 
  402661:	48 89 43 20          	mov    %rax,0x20(%rbx)
  402665:	48 b8 6d 20 74 68 65 	movabs $0x657220656874206d,%rax
  40266c:	20 72 65 
  40266f:	48 89 43 28          	mov    %rax,0x28(%rbx)
  402673:	48 b8 73 75 6c 74 20 	movabs $0x72657320746c7573,%rax
  40267a:	73 65 72 
  40267d:	48 89 43 30          	mov    %rax,0x30(%rbx)
  402681:	c7 43 38 76 65 72 00 	movl   $0x726576,0x38(%rbx)
  402688:	89 ef                	mov    %ebp,%edi
  40268a:	e8 21 e6 ff ff       	callq  400cb0 <close@plt>
  40268f:	b8 ff ff ff ff       	mov    $0xffffffff,%eax
  402694:	e9 87 01 00 00       	jmpq   402820 <submitr+0x709>
  402699:	0f b6 84 24 20 60 00 	movzbl 0x6020(%rsp),%eax
  4026a0:	00 
  4026a1:	83 e8 0d             	sub    $0xd,%eax
  4026a4:	75 15                	jne    4026bb <submitr+0x5a4>
  4026a6:	0f b6 84 24 21 60 00 	movzbl 0x6021(%rsp),%eax
  4026ad:	00 
  4026ae:	83 e8 0a             	sub    $0xa,%eax
  4026b1:	75 08                	jne    4026bb <submitr+0x5a4>
  4026b3:	0f b6 84 24 22 60 00 	movzbl 0x6022(%rsp),%eax
  4026ba:	00 
  4026bb:	85 c0                	test   %eax,%eax
  4026bd:	0f 85 3e ff ff ff    	jne    402601 <submitr+0x4ea>
  4026c3:	ba 00 20 00 00       	mov    $0x2000,%edx
  4026c8:	48 8d b4 24 20 60 00 	lea    0x6020(%rsp),%rsi
  4026cf:	00 
  4026d0:	48 8d bc 24 20 80 00 	lea    0x8020(%rsp),%rdi
  4026d7:	00 
  4026d8:	e8 b7 f9 ff ff       	callq  402094 <rio_readlineb>
  4026dd:	48 85 c0             	test   %rax,%rax
  4026e0:	0f 8f 83 00 00 00    	jg     402769 <submitr+0x652>
  4026e6:	48 b8 45 72 72 6f 72 	movabs $0x43203a726f727245,%rax
  4026ed:	3a 20 43 
  4026f0:	48 89 03             	mov    %rax,(%rbx)
  4026f3:	48 b8 6c 69 65 6e 74 	movabs $0x6e7520746e65696c,%rax
  4026fa:	20 75 6e 
  4026fd:	48 89 43 08          	mov    %rax,0x8(%rbx)
  402701:	48 b8 61 62 6c 65 20 	movabs $0x206f7420656c6261,%rax
  402708:	74 6f 20 
  40270b:	48 89 43 10          	mov    %rax,0x10(%rbx)
  40270f:	48 b8 72 65 61 64 20 	movabs $0x6174732064616572,%rax
  402716:	73 74 61 
  402719:	48 89 43 18          	mov    %rax,0x18(%rbx)
  40271d:	48 b8 74 75 73 20 6d 	movabs $0x7373656d20737574,%rax
  402724:	65 73 73 
  402727:	48 89 43 20          	mov    %rax,0x20(%rbx)
  40272b:	48 b8 61 67 65 20 66 	movabs $0x6d6f726620656761,%rax
  402732:	72 6f 6d 
  402735:	48 89 43 28          	mov    %rax,0x28(%rbx)
  402739:	48 b8 20 72 65 73 75 	movabs $0x20746c7573657220,%rax
  402740:	6c 74 20 
  402743:	48 89 43 30          	mov    %rax,0x30(%rbx)
  402747:	c7 43 38 73 65 72 76 	movl   $0x76726573,0x38(%rbx)
  40274e:	66 c7 43 3c 65 72    	movw   $0x7265,0x3c(%rbx)
  402754:	c6 43 3e 00          	movb   $0x0,0x3e(%rbx)
  402758:	89 ef                	mov    %ebp,%edi
  40275a:	e8 51 e5 ff ff       	callq  400cb0 <close@plt>
  40275f:	b8 ff ff ff ff       	mov    $0xffffffff,%eax
  402764:	e9 b7 00 00 00       	jmpq   402820 <submitr+0x709>
  402769:	8b 94 24 1c 20 00 00 	mov    0x201c(%rsp),%edx
  402770:	81 fa c8 00 00 00    	cmp    $0xc8,%edx
  402776:	74 28                	je     4027a0 <submitr+0x689>
  402778:	48 8d 4c 24 10       	lea    0x10(%rsp),%rcx
  40277d:	be 38 33 40 00       	mov    $0x403338,%esi
  402782:	48 89 df             	mov    %rbx,%rdi
  402785:	b8 00 00 00 00       	mov    $0x0,%eax
  40278a:	e8 51 e6 ff ff       	callq  400de0 <sprintf@plt>
  40278f:	89 ef                	mov    %ebp,%edi
  402791:	e8 1a e5 ff ff       	callq  400cb0 <close@plt>
  402796:	b8 ff ff ff ff       	mov    $0xffffffff,%eax
  40279b:	e9 80 00 00 00       	jmpq   402820 <submitr+0x709>
  4027a0:	48 8d b4 24 20 60 00 	lea    0x6020(%rsp),%rsi
  4027a7:	00 
  4027a8:	48 89 df             	mov    %rbx,%rdi
  4027ab:	e8 90 e4 ff ff       	callq  400c40 <strcpy@plt>
  4027b0:	89 ef                	mov    %ebp,%edi
  4027b2:	e8 f9 e4 ff ff       	callq  400cb0 <close@plt>
  4027b7:	0f b6 03             	movzbl (%rbx),%eax
  4027ba:	83 e8 4f             	sub    $0x4f,%eax
  4027bd:	75 18                	jne    4027d7 <submitr+0x6c0>
  4027bf:	0f b6 53 01          	movzbl 0x1(%rbx),%edx
  4027c3:	83 ea 4b             	sub    $0x4b,%edx
  4027c6:	75 11                	jne    4027d9 <submitr+0x6c2>
  4027c8:	0f b6 53 02          	movzbl 0x2(%rbx),%edx
  4027cc:	83 ea 0a             	sub    $0xa,%edx
  4027cf:	75 08                	jne    4027d9 <submitr+0x6c2>
  4027d1:	0f b6 53 03          	movzbl 0x3(%rbx),%edx
  4027d5:	eb 02                	jmp    4027d9 <submitr+0x6c2>
  4027d7:	89 c2                	mov    %eax,%edx
  4027d9:	85 d2                	test   %edx,%edx
  4027db:	74 30                	je     40280d <submitr+0x6f6>
  4027dd:	bf 80 33 40 00       	mov    $0x403380,%edi
  4027e2:	b9 05 00 00 00       	mov    $0x5,%ecx
  4027e7:	48 89 de             	mov    %rbx,%rsi
  4027ea:	f3 a6                	repz cmpsb %es:(%rdi),%ds:(%rsi)
  4027ec:	0f 97 c1             	seta   %cl
  4027ef:	0f 92 c2             	setb   %dl
  4027f2:	38 d1                	cmp    %dl,%cl
  4027f4:	74 1e                	je     402814 <submitr+0x6fd>
  4027f6:	85 c0                	test   %eax,%eax
  4027f8:	75 0d                	jne    402807 <submitr+0x6f0>
  4027fa:	0f b6 43 01          	movzbl 0x1(%rbx),%eax
  4027fe:	83 e8 4b             	sub    $0x4b,%eax
  402801:	75 04                	jne    402807 <submitr+0x6f0>
  402803:	0f b6 43 02          	movzbl 0x2(%rbx),%eax
  402807:	85 c0                	test   %eax,%eax
  402809:	75 10                	jne    40281b <submitr+0x704>
  40280b:	eb 13                	jmp    402820 <submitr+0x709>
  40280d:	b8 00 00 00 00       	mov    $0x0,%eax
  402812:	eb 0c                	jmp    402820 <submitr+0x709>
  402814:	b8 00 00 00 00       	mov    $0x0,%eax
  402819:	eb 05                	jmp    402820 <submitr+0x709>
  40281b:	b8 ff ff ff ff       	mov    $0xffffffff,%eax
  402820:	48 81 c4 48 a0 00 00 	add    $0xa048,%rsp
  402827:	5b                   	pop    %rbx
  402828:	5d                   	pop    %rbp
  402829:	41 5c                	pop    %r12
  40282b:	41 5d                	pop    %r13
  40282d:	41 5e                	pop    %r14
  40282f:	41 5f                	pop    %r15
  402831:	c3                   	retq   

0000000000402832 <init_timeout>:
  402832:	53                   	push   %rbx
  402833:	89 fb                	mov    %edi,%ebx
  402835:	85 ff                	test   %edi,%edi
  402837:	74 1f                	je     402858 <init_timeout+0x26>
  402839:	85 ff                	test   %edi,%edi
  40283b:	79 05                	jns    402842 <init_timeout+0x10>
  40283d:	bb 00 00 00 00       	mov    $0x0,%ebx
  402842:	be b2 1e 40 00       	mov    $0x401eb2,%esi
  402847:	bf 0e 00 00 00       	mov    $0xe,%edi
  40284c:	e8 8f e4 ff ff       	callq  400ce0 <signal@plt>
  402851:	89 df                	mov    %ebx,%edi
  402853:	e8 48 e4 ff ff       	callq  400ca0 <alarm@plt>
  402858:	5b                   	pop    %rbx
  402859:	c3                   	retq   

000000000040285a <init_driver>:
  40285a:	55                   	push   %rbp
  40285b:	53                   	push   %rbx
  40285c:	48 83 ec 18          	sub    $0x18,%rsp
  402860:	48 89 fd             	mov    %rdi,%rbp
  402863:	be 01 00 00 00       	mov    $0x1,%esi
  402868:	bf 0d 00 00 00       	mov    $0xd,%edi
  40286d:	e8 6e e4 ff ff       	callq  400ce0 <signal@plt>
  402872:	be 01 00 00 00       	mov    $0x1,%esi
  402877:	bf 1d 00 00 00       	mov    $0x1d,%edi
  40287c:	e8 5f e4 ff ff       	callq  400ce0 <signal@plt>
  402881:	be 01 00 00 00       	mov    $0x1,%esi
  402886:	bf 1d 00 00 00       	mov    $0x1d,%edi
  40288b:	e8 50 e4 ff ff       	callq  400ce0 <signal@plt>
  402890:	ba 00 00 00 00       	mov    $0x0,%edx
  402895:	be 01 00 00 00       	mov    $0x1,%esi
  40289a:	bf 02 00 00 00       	mov    $0x2,%edi
  40289f:	e8 6c e5 ff ff       	callq  400e10 <socket@plt>
  4028a4:	89 c3                	mov    %eax,%ebx
  4028a6:	85 c0                	test   %eax,%eax
  4028a8:	79 4f                	jns    4028f9 <init_driver+0x9f>
  4028aa:	48 b8 45 72 72 6f 72 	movabs $0x43203a726f727245,%rax
  4028b1:	3a 20 43 
  4028b4:	48 89 45 00          	mov    %rax,0x0(%rbp)
  4028b8:	48 b8 6c 69 65 6e 74 	movabs $0x6e7520746e65696c,%rax
  4028bf:	20 75 6e 
  4028c2:	48 89 45 08          	mov    %rax,0x8(%rbp)
  4028c6:	48 b8 61 62 6c 65 20 	movabs $0x206f7420656c6261,%rax
  4028cd:	74 6f 20 
  4028d0:	48 89 45 10          	mov    %rax,0x10(%rbp)
  4028d4:	48 b8 63 72 65 61 74 	movabs $0x7320657461657263,%rax
  4028db:	65 20 73 
  4028de:	48 89 45 18          	mov    %rax,0x18(%rbp)
  4028e2:	c7 45 20 6f 63 6b 65 	movl   $0x656b636f,0x20(%rbp)
  4028e9:	66 c7 45 24 74 00    	movw   $0x74,0x24(%rbp)
  4028ef:	b8 ff ff ff ff       	mov    $0xffffffff,%eax
  4028f4:	e9 23 01 00 00       	jmpq   402a1c <init_driver+0x1c2>
  4028f9:	bf a4 2e 40 00       	mov    $0x402ea4,%edi
  4028fe:	e8 ed e3 ff ff       	callq  400cf0 <gethostbyname@plt>
  402903:	48 85 c0             	test   %rax,%rax
  402906:	75 68                	jne    402970 <init_driver+0x116>
  402908:	48 b8 45 72 72 6f 72 	movabs $0x44203a726f727245,%rax
  40290f:	3a 20 44 
  402912:	48 89 45 00          	mov    %rax,0x0(%rbp)
  402916:	48 b8 4e 53 20 69 73 	movabs $0x6e7520736920534e,%rax
  40291d:	20 75 6e 
  402920:	48 89 45 08          	mov    %rax,0x8(%rbp)
  402924:	48 b8 61 62 6c 65 20 	movabs $0x206f7420656c6261,%rax
  40292b:	74 6f 20 
  40292e:	48 89 45 10          	mov    %rax,0x10(%rbp)
  402932:	48 b8 72 65 73 6f 6c 	movabs $0x2065766c6f736572,%rax
  402939:	76 65 20 
  40293c:	48 89 45 18          	mov    %rax,0x18(%rbp)
  402940:	48 b8 73 65 72 76 65 	movabs $0x6120726576726573,%rax
  402947:	72 20 61 
  40294a:	48 89 45 20          	mov    %rax,0x20(%rbp)
  40294e:	c7 45 28 64 64 72 65 	movl   $0x65726464,0x28(%rbp)
  402955:	66 c7 45 2c 73 73    	movw   $0x7373,0x2c(%rbp)
  40295b:	c6 45 2e 00          	movb   $0x0,0x2e(%rbp)
  40295f:	89 df                	mov    %ebx,%edi
  402961:	e8 4a e3 ff ff       	callq  400cb0 <close@plt>
  402966:	b8 ff ff ff ff       	mov    $0xffffffff,%eax
  40296b:	e9 ac 00 00 00       	jmpq   402a1c <init_driver+0x1c2>
  402970:	48 c7 04 24 00 00 00 	movq   $0x0,(%rsp)
  402977:	00 
  402978:	48 c7 44 24 08 00 00 	movq   $0x0,0x8(%rsp)
  40297f:	00 00 
  402981:	66 c7 04 24 02 00    	movw   $0x2,(%rsp)
  402987:	48 8b 48 18          	mov    0x18(%rax),%rcx
  40298b:	48 63 50 14          	movslq 0x14(%rax),%rdx
  40298f:	48 8d 74 24 04       	lea    0x4(%rsp),%rsi
  402994:	48 8b 39             	mov    (%rcx),%rdi
  402997:	e8 f4 e3 ff ff       	callq  400d90 <bcopy@plt>
  40299c:	66 c7 44 24 02 47 26 	movw   $0x2647,0x2(%rsp)
  4029a3:	ba 10 00 00 00       	mov    $0x10,%edx
  4029a8:	48 89 e6             	mov    %rsp,%rsi
  4029ab:	89 df                	mov    %ebx,%edi
  4029ad:	e8 4e e4 ff ff       	callq  400e00 <connect@plt>
  4029b2:	85 c0                	test   %eax,%eax
  4029b4:	79 50                	jns    402a06 <init_driver+0x1ac>
  4029b6:	48 b8 45 72 72 6f 72 	movabs $0x55203a726f727245,%rax
  4029bd:	3a 20 55 
  4029c0:	48 89 45 00          	mov    %rax,0x0(%rbp)
  4029c4:	48 b8 6e 61 62 6c 65 	movabs $0x6f7420656c62616e,%rax
  4029cb:	20 74 6f 
  4029ce:	48 89 45 08          	mov    %rax,0x8(%rbp)
  4029d2:	48 b8 20 63 6f 6e 6e 	movabs $0x7463656e6e6f6320,%rax
  4029d9:	65 63 74 
  4029dc:	48 89 45 10          	mov    %rax,0x10(%rbp)
  4029e0:	48 b8 20 74 6f 20 73 	movabs $0x76726573206f7420,%rax
  4029e7:	65 72 76 
  4029ea:	48 89 45 18          	mov    %rax,0x18(%rbp)
  4029ee:	66 c7 45 20 65 72    	movw   $0x7265,0x20(%rbp)
  4029f4:	c6 45 22 00          	movb   $0x0,0x22(%rbp)
  4029f8:	89 df                	mov    %ebx,%edi
  4029fa:	e8 b1 e2 ff ff       	callq  400cb0 <close@plt>
  4029ff:	b8 ff ff ff ff       	mov    $0xffffffff,%eax
  402a04:	eb 16                	jmp    402a1c <init_driver+0x1c2>
  402a06:	89 df                	mov    %ebx,%edi
  402a08:	e8 a3 e2 ff ff       	callq  400cb0 <close@plt>
  402a0d:	66 c7 45 00 4f 4b    	movw   $0x4b4f,0x0(%rbp)
  402a13:	c6 45 02 00          	movb   $0x0,0x2(%rbp)
  402a17:	b8 00 00 00 00       	mov    $0x0,%eax
  402a1c:	48 83 c4 18          	add    $0x18,%rsp
  402a20:	5b                   	pop    %rbx
  402a21:	5d                   	pop    %rbp
  402a22:	c3                   	retq   

0000000000402a23 <driver_post>:
  402a23:	53                   	push   %rbx
  402a24:	48 83 ec 10          	sub    $0x10,%rsp
  402a28:	4c 89 cb             	mov    %r9,%rbx
  402a2b:	45 85 c0             	test   %r8d,%r8d
  402a2e:	74 22                	je     402a52 <driver_post+0x2f>
  402a30:	48 89 ce             	mov    %rcx,%rsi
  402a33:	bf 85 33 40 00       	mov    $0x403385,%edi
  402a38:	b8 00 00 00 00       	mov    $0x0,%eax
  402a3d:	e8 3e e2 ff ff       	callq  400c80 <printf@plt>
  402a42:	66 c7 03 4f 4b       	movw   $0x4b4f,(%rbx)
  402a47:	c6 43 02 00          	movb   $0x0,0x2(%rbx)
  402a4b:	b8 00 00 00 00       	mov    $0x0,%eax
  402a50:	eb 39                	jmp    402a8b <driver_post+0x68>
  402a52:	48 85 ff             	test   %rdi,%rdi
  402a55:	74 26                	je     402a7d <driver_post+0x5a>
  402a57:	80 3f 00             	cmpb   $0x0,(%rdi)
  402a5a:	74 21                	je     402a7d <driver_post+0x5a>
  402a5c:	4c 89 0c 24          	mov    %r9,(%rsp)
  402a60:	49 89 c9             	mov    %rcx,%r9
  402a63:	49 89 d0             	mov    %rdx,%r8
  402a66:	48 89 f9             	mov    %rdi,%rcx
  402a69:	48 89 f2             	mov    %rsi,%rdx
  402a6c:	be 26 47 00 00       	mov    $0x4726,%esi
  402a71:	bf a4 2e 40 00       	mov    $0x402ea4,%edi
  402a76:	e8 9c f6 ff ff       	callq  402117 <submitr>
  402a7b:	eb 0e                	jmp    402a8b <driver_post+0x68>
  402a7d:	66 c7 03 4f 4b       	movw   $0x4b4f,(%rbx)
  402a82:	c6 43 02 00          	movb   $0x0,0x2(%rbx)
  402a86:	b8 00 00 00 00       	mov    $0x0,%eax
  402a8b:	48 83 c4 10          	add    $0x10,%rsp
  402a8f:	5b                   	pop    %rbx
  402a90:	c3                   	retq   
  402a91:	0f 1f 00             	nopl   (%rax)

0000000000402a94 <check>:
  402a94:	89 f8                	mov    %edi,%eax
  402a96:	c1 e8 1c             	shr    $0x1c,%eax
  402a99:	85 c0                	test   %eax,%eax
  402a9b:	74 1d                	je     402aba <check+0x26>
  402a9d:	b9 00 00 00 00       	mov    $0x0,%ecx
  402aa2:	eb 0b                	jmp    402aaf <check+0x1b>
  402aa4:	89 f8                	mov    %edi,%eax
  402aa6:	d3 e8                	shr    %cl,%eax
  402aa8:	3c 0a                	cmp    $0xa,%al
  402aaa:	74 14                	je     402ac0 <check+0x2c>
  402aac:	83 c1 08             	add    $0x8,%ecx
  402aaf:	83 f9 1f             	cmp    $0x1f,%ecx
  402ab2:	7e f0                	jle    402aa4 <check+0x10>
  402ab4:	b8 01 00 00 00       	mov    $0x1,%eax
  402ab9:	c3                   	retq   
  402aba:	b8 00 00 00 00       	mov    $0x0,%eax
  402abf:	c3                   	retq   
  402ac0:	b8 00 00 00 00       	mov    $0x0,%eax
  402ac5:	c3                   	retq   

0000000000402ac6 <gencookie>:
  402ac6:	53                   	push   %rbx
  402ac7:	83 c7 01             	add    $0x1,%edi
  402aca:	e8 51 e1 ff ff       	callq  400c20 <srandom@plt>
  402acf:	e8 7c e2 ff ff       	callq  400d50 <random@plt>
  402ad4:	89 c3                	mov    %eax,%ebx
  402ad6:	89 c7                	mov    %eax,%edi
  402ad8:	e8 b7 ff ff ff       	callq  402a94 <check>
  402add:	85 c0                	test   %eax,%eax
  402adf:	74 ee                	je     402acf <gencookie+0x9>
  402ae1:	89 d8                	mov    %ebx,%eax
  402ae3:	5b                   	pop    %rbx
  402ae4:	c3                   	retq   
  402ae5:	66 2e 0f 1f 84 00 00 	nopw   %cs:0x0(%rax,%rax,1)
  402aec:	00 00 00 
  402aef:	90                   	nop

0000000000402af0 <__libc_csu_init>:
  402af0:	41 57                	push   %r15
  402af2:	41 89 ff             	mov    %edi,%r15d
  402af5:	41 56                	push   %r14
  402af7:	49 89 f6             	mov    %rsi,%r14
  402afa:	41 55                	push   %r13
  402afc:	49 89 d5             	mov    %rdx,%r13
  402aff:	41 54                	push   %r12
  402b01:	4c 8d 25 08 13 20 00 	lea    0x201308(%rip),%r12        # 603e10 <__frame_dummy_init_array_entry>
  402b08:	55                   	push   %rbp
  402b09:	48 8d 2d 08 13 20 00 	lea    0x201308(%rip),%rbp        # 603e18 <__init_array_end>
  402b10:	53                   	push   %rbx
  402b11:	4c 29 e5             	sub    %r12,%rbp
  402b14:	31 db                	xor    %ebx,%ebx
  402b16:	48 c1 fd 03          	sar    $0x3,%rbp
  402b1a:	48 83 ec 08          	sub    $0x8,%rsp
  402b1e:	e8 a5 e0 ff ff       	callq  400bc8 <_init>
  402b23:	48 85 ed             	test   %rbp,%rbp
  402b26:	74 1e                	je     402b46 <__libc_csu_init+0x56>
  402b28:	0f 1f 84 00 00 00 00 	nopl   0x0(%rax,%rax,1)
  402b2f:	00 
  402b30:	4c 89 ea             	mov    %r13,%rdx
  402b33:	4c 89 f6             	mov    %r14,%rsi
  402b36:	44 89 ff             	mov    %r15d,%edi
  402b39:	41 ff 14 dc          	callq  *(%r12,%rbx,8)
  402b3d:	48 83 c3 01          	add    $0x1,%rbx
  402b41:	48 39 eb             	cmp    %rbp,%rbx
  402b44:	75 ea                	jne    402b30 <__libc_csu_init+0x40>
  402b46:	48 83 c4 08          	add    $0x8,%rsp
  402b4a:	5b                   	pop    %rbx
  402b4b:	5d                   	pop    %rbp
  402b4c:	41 5c                	pop    %r12
  402b4e:	41 5d                	pop    %r13
  402b50:	41 5e                	pop    %r14
  402b52:	41 5f                	pop    %r15
  402b54:	c3                   	retq   
  402b55:	66 66 2e 0f 1f 84 00 	data32 nopw %cs:0x0(%rax,%rax,1)
  402b5c:	00 00 00 00 

0000000000402b60 <__libc_csu_fini>:
  402b60:	f3 c3                	repz retq 
  402b62:	66 90                	xchg   %ax,%ax

Disassembly of section .fini:

0000000000402b64 <_fini>:
  402b64:	48 83 ec 08          	sub    $0x8,%rsp
  402b68:	48 83 c4 08          	add    $0x8,%rsp
  402b6c:	c3                   	retq   
