rtarget:     file format elf64-x86-64


Disassembly of section .init:

0000000000400bc8 <_init>:
  400bc8:	48 83 ec 08          	sub    $0x8,%rsp
  400bcc:	48 8b 05 25 44 20 00 	mov    0x204425(%rip),%rax        # 604ff8 <_DYNAMIC+0x1d0>
  400bd3:	48 85 c0             	test   %rax,%rax
  400bd6:	74 05                	je     400bdd <_init+0x15>
  400bd8:	e8 33 01 00 00       	callq  400d10 <__gmon_start__@plt>
  400bdd:	48 83 c4 08          	add    $0x8,%rsp
  400be1:	c3                   	retq   

Disassembly of section .plt:

0000000000400bf0 <strcasecmp@plt-0x10>:
  400bf0:	ff 35 12 44 20 00    	pushq  0x204412(%rip)        # 605008 <_GLOBAL_OFFSET_TABLE_+0x8>
  400bf6:	ff 25 14 44 20 00    	jmpq   *0x204414(%rip)        # 605010 <_GLOBAL_OFFSET_TABLE_+0x10>
  400bfc:	0f 1f 40 00          	nopl   0x0(%rax)

0000000000400c00 <strcasecmp@plt>:
  400c00:	ff 25 12 44 20 00    	jmpq   *0x204412(%rip)        # 605018 <_GLOBAL_OFFSET_TABLE_+0x18>
  400c06:	68 00 00 00 00       	pushq  $0x0
  400c0b:	e9 e0 ff ff ff       	jmpq   400bf0 <_init+0x28>

0000000000400c10 <__errno_location@plt>:
  400c10:	ff 25 0a 44 20 00    	jmpq   *0x20440a(%rip)        # 605020 <_GLOBAL_OFFSET_TABLE_+0x20>
  400c16:	68 01 00 00 00       	pushq  $0x1
  400c1b:	e9 d0 ff ff ff       	jmpq   400bf0 <_init+0x28>

0000000000400c20 <srandom@plt>:
  400c20:	ff 25 02 44 20 00    	jmpq   *0x204402(%rip)        # 605028 <_GLOBAL_OFFSET_TABLE_+0x28>
  400c26:	68 02 00 00 00       	pushq  $0x2
  400c2b:	e9 c0 ff ff ff       	jmpq   400bf0 <_init+0x28>

0000000000400c30 <strncmp@plt>:
  400c30:	ff 25 fa 43 20 00    	jmpq   *0x2043fa(%rip)        # 605030 <_GLOBAL_OFFSET_TABLE_+0x30>
  400c36:	68 03 00 00 00       	pushq  $0x3
  400c3b:	e9 b0 ff ff ff       	jmpq   400bf0 <_init+0x28>

0000000000400c40 <strcpy@plt>:
  400c40:	ff 25 f2 43 20 00    	jmpq   *0x2043f2(%rip)        # 605038 <_GLOBAL_OFFSET_TABLE_+0x38>
  400c46:	68 04 00 00 00       	pushq  $0x4
  400c4b:	e9 a0 ff ff ff       	jmpq   400bf0 <_init+0x28>

0000000000400c50 <puts@plt>:
  400c50:	ff 25 ea 43 20 00    	jmpq   *0x2043ea(%rip)        # 605040 <_GLOBAL_OFFSET_TABLE_+0x40>
  400c56:	68 05 00 00 00       	pushq  $0x5
  400c5b:	e9 90 ff ff ff       	jmpq   400bf0 <_init+0x28>

0000000000400c60 <write@plt>:
  400c60:	ff 25 e2 43 20 00    	jmpq   *0x2043e2(%rip)        # 605048 <_GLOBAL_OFFSET_TABLE_+0x48>
  400c66:	68 06 00 00 00       	pushq  $0x6
  400c6b:	e9 80 ff ff ff       	jmpq   400bf0 <_init+0x28>

0000000000400c70 <mmap@plt>:
  400c70:	ff 25 da 43 20 00    	jmpq   *0x2043da(%rip)        # 605050 <_GLOBAL_OFFSET_TABLE_+0x50>
  400c76:	68 07 00 00 00       	pushq  $0x7
  400c7b:	e9 70 ff ff ff       	jmpq   400bf0 <_init+0x28>

0000000000400c80 <printf@plt>:
  400c80:	ff 25 d2 43 20 00    	jmpq   *0x2043d2(%rip)        # 605058 <_GLOBAL_OFFSET_TABLE_+0x58>
  400c86:	68 08 00 00 00       	pushq  $0x8
  400c8b:	e9 60 ff ff ff       	jmpq   400bf0 <_init+0x28>

0000000000400c90 <memset@plt>:
  400c90:	ff 25 ca 43 20 00    	jmpq   *0x2043ca(%rip)        # 605060 <_GLOBAL_OFFSET_TABLE_+0x60>
  400c96:	68 09 00 00 00       	pushq  $0x9
  400c9b:	e9 50 ff ff ff       	jmpq   400bf0 <_init+0x28>

0000000000400ca0 <alarm@plt>:
  400ca0:	ff 25 c2 43 20 00    	jmpq   *0x2043c2(%rip)        # 605068 <_GLOBAL_OFFSET_TABLE_+0x68>
  400ca6:	68 0a 00 00 00       	pushq  $0xa
  400cab:	e9 40 ff ff ff       	jmpq   400bf0 <_init+0x28>

0000000000400cb0 <close@plt>:
  400cb0:	ff 25 ba 43 20 00    	jmpq   *0x2043ba(%rip)        # 605070 <_GLOBAL_OFFSET_TABLE_+0x70>
  400cb6:	68 0b 00 00 00       	pushq  $0xb
  400cbb:	e9 30 ff ff ff       	jmpq   400bf0 <_init+0x28>

0000000000400cc0 <read@plt>:
  400cc0:	ff 25 b2 43 20 00    	jmpq   *0x2043b2(%rip)        # 605078 <_GLOBAL_OFFSET_TABLE_+0x78>
  400cc6:	68 0c 00 00 00       	pushq  $0xc
  400ccb:	e9 20 ff ff ff       	jmpq   400bf0 <_init+0x28>

0000000000400cd0 <__libc_start_main@plt>:
  400cd0:	ff 25 aa 43 20 00    	jmpq   *0x2043aa(%rip)        # 605080 <_GLOBAL_OFFSET_TABLE_+0x80>
  400cd6:	68 0d 00 00 00       	pushq  $0xd
  400cdb:	e9 10 ff ff ff       	jmpq   400bf0 <_init+0x28>

0000000000400ce0 <signal@plt>:
  400ce0:	ff 25 a2 43 20 00    	jmpq   *0x2043a2(%rip)        # 605088 <_GLOBAL_OFFSET_TABLE_+0x88>
  400ce6:	68 0e 00 00 00       	pushq  $0xe
  400ceb:	e9 00 ff ff ff       	jmpq   400bf0 <_init+0x28>

0000000000400cf0 <gethostbyname@plt>:
  400cf0:	ff 25 9a 43 20 00    	jmpq   *0x20439a(%rip)        # 605090 <_GLOBAL_OFFSET_TABLE_+0x90>
  400cf6:	68 0f 00 00 00       	pushq  $0xf
  400cfb:	e9 f0 fe ff ff       	jmpq   400bf0 <_init+0x28>

0000000000400d00 <fprintf@plt>:
  400d00:	ff 25 92 43 20 00    	jmpq   *0x204392(%rip)        # 605098 <_GLOBAL_OFFSET_TABLE_+0x98>
  400d06:	68 10 00 00 00       	pushq  $0x10
  400d0b:	e9 e0 fe ff ff       	jmpq   400bf0 <_init+0x28>

0000000000400d10 <__gmon_start__@plt>:
  400d10:	ff 25 8a 43 20 00    	jmpq   *0x20438a(%rip)        # 6050a0 <_GLOBAL_OFFSET_TABLE_+0xa0>
  400d16:	68 11 00 00 00       	pushq  $0x11
  400d1b:	e9 d0 fe ff ff       	jmpq   400bf0 <_init+0x28>

0000000000400d20 <strtol@plt>:
  400d20:	ff 25 82 43 20 00    	jmpq   *0x204382(%rip)        # 6050a8 <_GLOBAL_OFFSET_TABLE_+0xa8>
  400d26:	68 12 00 00 00       	pushq  $0x12
  400d2b:	e9 c0 fe ff ff       	jmpq   400bf0 <_init+0x28>

0000000000400d30 <memcpy@plt>:
  400d30:	ff 25 7a 43 20 00    	jmpq   *0x20437a(%rip)        # 6050b0 <_GLOBAL_OFFSET_TABLE_+0xb0>
  400d36:	68 13 00 00 00       	pushq  $0x13
  400d3b:	e9 b0 fe ff ff       	jmpq   400bf0 <_init+0x28>

0000000000400d40 <time@plt>:
  400d40:	ff 25 72 43 20 00    	jmpq   *0x204372(%rip)        # 6050b8 <_GLOBAL_OFFSET_TABLE_+0xb8>
  400d46:	68 14 00 00 00       	pushq  $0x14
  400d4b:	e9 a0 fe ff ff       	jmpq   400bf0 <_init+0x28>

0000000000400d50 <random@plt>:
  400d50:	ff 25 6a 43 20 00    	jmpq   *0x20436a(%rip)        # 6050c0 <_GLOBAL_OFFSET_TABLE_+0xc0>
  400d56:	68 15 00 00 00       	pushq  $0x15
  400d5b:	e9 90 fe ff ff       	jmpq   400bf0 <_init+0x28>

0000000000400d60 <_IO_getc@plt>:
  400d60:	ff 25 62 43 20 00    	jmpq   *0x204362(%rip)        # 6050c8 <_GLOBAL_OFFSET_TABLE_+0xc8>
  400d66:	68 16 00 00 00       	pushq  $0x16
  400d6b:	e9 80 fe ff ff       	jmpq   400bf0 <_init+0x28>

0000000000400d70 <__isoc99_sscanf@plt>:
  400d70:	ff 25 5a 43 20 00    	jmpq   *0x20435a(%rip)        # 6050d0 <_GLOBAL_OFFSET_TABLE_+0xd0>
  400d76:	68 17 00 00 00       	pushq  $0x17
  400d7b:	e9 70 fe ff ff       	jmpq   400bf0 <_init+0x28>

0000000000400d80 <munmap@plt>:
  400d80:	ff 25 52 43 20 00    	jmpq   *0x204352(%rip)        # 6050d8 <_GLOBAL_OFFSET_TABLE_+0xd8>
  400d86:	68 18 00 00 00       	pushq  $0x18
  400d8b:	e9 60 fe ff ff       	jmpq   400bf0 <_init+0x28>

0000000000400d90 <bcopy@plt>:
  400d90:	ff 25 4a 43 20 00    	jmpq   *0x20434a(%rip)        # 6050e0 <_GLOBAL_OFFSET_TABLE_+0xe0>
  400d96:	68 19 00 00 00       	pushq  $0x19
  400d9b:	e9 50 fe ff ff       	jmpq   400bf0 <_init+0x28>

0000000000400da0 <fopen@plt>:
  400da0:	ff 25 42 43 20 00    	jmpq   *0x204342(%rip)        # 6050e8 <_GLOBAL_OFFSET_TABLE_+0xe8>
  400da6:	68 1a 00 00 00       	pushq  $0x1a
  400dab:	e9 40 fe ff ff       	jmpq   400bf0 <_init+0x28>

0000000000400db0 <getopt@plt>:
  400db0:	ff 25 3a 43 20 00    	jmpq   *0x20433a(%rip)        # 6050f0 <_GLOBAL_OFFSET_TABLE_+0xf0>
  400db6:	68 1b 00 00 00       	pushq  $0x1b
  400dbb:	e9 30 fe ff ff       	jmpq   400bf0 <_init+0x28>

0000000000400dc0 <strtoul@plt>:
  400dc0:	ff 25 32 43 20 00    	jmpq   *0x204332(%rip)        # 6050f8 <_GLOBAL_OFFSET_TABLE_+0xf8>
  400dc6:	68 1c 00 00 00       	pushq  $0x1c
  400dcb:	e9 20 fe ff ff       	jmpq   400bf0 <_init+0x28>

0000000000400dd0 <gethostname@plt>:
  400dd0:	ff 25 2a 43 20 00    	jmpq   *0x20432a(%rip)        # 605100 <_GLOBAL_OFFSET_TABLE_+0x100>
  400dd6:	68 1d 00 00 00       	pushq  $0x1d
  400ddb:	e9 10 fe ff ff       	jmpq   400bf0 <_init+0x28>

0000000000400de0 <sprintf@plt>:
  400de0:	ff 25 22 43 20 00    	jmpq   *0x204322(%rip)        # 605108 <_GLOBAL_OFFSET_TABLE_+0x108>
  400de6:	68 1e 00 00 00       	pushq  $0x1e
  400deb:	e9 00 fe ff ff       	jmpq   400bf0 <_init+0x28>

0000000000400df0 <exit@plt>:
  400df0:	ff 25 1a 43 20 00    	jmpq   *0x20431a(%rip)        # 605110 <_GLOBAL_OFFSET_TABLE_+0x110>
  400df6:	68 1f 00 00 00       	pushq  $0x1f
  400dfb:	e9 f0 fd ff ff       	jmpq   400bf0 <_init+0x28>

0000000000400e00 <connect@plt>:
  400e00:	ff 25 12 43 20 00    	jmpq   *0x204312(%rip)        # 605118 <_GLOBAL_OFFSET_TABLE_+0x118>
  400e06:	68 20 00 00 00       	pushq  $0x20
  400e0b:	e9 e0 fd ff ff       	jmpq   400bf0 <_init+0x28>

0000000000400e10 <socket@plt>:
  400e10:	ff 25 0a 43 20 00    	jmpq   *0x20430a(%rip)        # 605120 <_GLOBAL_OFFSET_TABLE_+0x120>
  400e16:	68 21 00 00 00       	pushq  $0x21
  400e1b:	e9 d0 fd ff ff       	jmpq   400bf0 <_init+0x28>

Disassembly of section .text:

0000000000400e20 <_start>:
  400e20:	31 ed                	xor    %ebp,%ebp
  400e22:	49 89 d1             	mov    %rdx,%r9
  400e25:	5e                   	pop    %rsi
  400e26:	48 89 e2             	mov    %rsp,%rdx
  400e29:	48 83 e4 f0          	and    $0xfffffffffffffff0,%rsp
  400e2d:	50                   	push   %rax
  400e2e:	54                   	push   %rsp
  400e2f:	49 c7 c0 80 2c 40 00 	mov    $0x402c80,%r8
  400e36:	48 c7 c1 10 2c 40 00 	mov    $0x402c10,%rcx
  400e3d:	48 c7 c7 e0 10 40 00 	mov    $0x4010e0,%rdi
  400e44:	e8 87 fe ff ff       	callq  400cd0 <__libc_start_main@plt>
  400e49:	f4                   	hlt    
  400e4a:	66 90                	xchg   %ax,%ax
  400e4c:	0f 1f 40 00          	nopl   0x0(%rax)

0000000000400e50 <deregister_tm_clones>:
  400e50:	b8 b7 54 60 00       	mov    $0x6054b7,%eax
  400e55:	55                   	push   %rbp
  400e56:	48 2d b0 54 60 00    	sub    $0x6054b0,%rax
  400e5c:	48 83 f8 0e          	cmp    $0xe,%rax
  400e60:	48 89 e5             	mov    %rsp,%rbp
  400e63:	77 02                	ja     400e67 <deregister_tm_clones+0x17>
  400e65:	5d                   	pop    %rbp
  400e66:	c3                   	retq   
  400e67:	b8 00 00 00 00       	mov    $0x0,%eax
  400e6c:	48 85 c0             	test   %rax,%rax
  400e6f:	74 f4                	je     400e65 <deregister_tm_clones+0x15>
  400e71:	5d                   	pop    %rbp
  400e72:	bf b0 54 60 00       	mov    $0x6054b0,%edi
  400e77:	ff e0                	jmpq   *%rax
  400e79:	0f 1f 80 00 00 00 00 	nopl   0x0(%rax)

0000000000400e80 <register_tm_clones>:
  400e80:	b8 b0 54 60 00       	mov    $0x6054b0,%eax
  400e85:	55                   	push   %rbp
  400e86:	48 2d b0 54 60 00    	sub    $0x6054b0,%rax
  400e8c:	48 c1 f8 03          	sar    $0x3,%rax
  400e90:	48 89 e5             	mov    %rsp,%rbp
  400e93:	48 89 c2             	mov    %rax,%rdx
  400e96:	48 c1 ea 3f          	shr    $0x3f,%rdx
  400e9a:	48 01 d0             	add    %rdx,%rax
  400e9d:	48 d1 f8             	sar    %rax
  400ea0:	75 02                	jne    400ea4 <register_tm_clones+0x24>
  400ea2:	5d                   	pop    %rbp
  400ea3:	c3                   	retq   
  400ea4:	ba 00 00 00 00       	mov    $0x0,%edx
  400ea9:	48 85 d2             	test   %rdx,%rdx
  400eac:	74 f4                	je     400ea2 <register_tm_clones+0x22>
  400eae:	5d                   	pop    %rbp
  400eaf:	48 89 c6             	mov    %rax,%rsi
  400eb2:	bf b0 54 60 00       	mov    $0x6054b0,%edi
  400eb7:	ff e2                	jmpq   *%rdx
  400eb9:	0f 1f 80 00 00 00 00 	nopl   0x0(%rax)

0000000000400ec0 <__do_global_dtors_aux>:
  400ec0:	80 3d 11 46 20 00 00 	cmpb   $0x0,0x204611(%rip)        # 6054d8 <completed.6342>
  400ec7:	75 11                	jne    400eda <__do_global_dtors_aux+0x1a>
  400ec9:	55                   	push   %rbp
  400eca:	48 89 e5             	mov    %rsp,%rbp
  400ecd:	e8 7e ff ff ff       	callq  400e50 <deregister_tm_clones>
  400ed2:	5d                   	pop    %rbp
  400ed3:	c6 05 fe 45 20 00 01 	movb   $0x1,0x2045fe(%rip)        # 6054d8 <completed.6342>
  400eda:	f3 c3                	repz retq 
  400edc:	0f 1f 40 00          	nopl   0x0(%rax)

0000000000400ee0 <frame_dummy>:
  400ee0:	48 83 3d 38 3f 20 00 	cmpq   $0x0,0x203f38(%rip)        # 604e20 <__JCR_END__>
  400ee7:	00 
  400ee8:	74 1e                	je     400f08 <frame_dummy+0x28>
  400eea:	b8 00 00 00 00       	mov    $0x0,%eax
  400eef:	48 85 c0             	test   %rax,%rax
  400ef2:	74 14                	je     400f08 <frame_dummy+0x28>
  400ef4:	55                   	push   %rbp
  400ef5:	bf 20 4e 60 00       	mov    $0x604e20,%edi
  400efa:	48 89 e5             	mov    %rsp,%rbp
  400efd:	ff d0                	callq  *%rax
  400eff:	5d                   	pop    %rbp
  400f00:	e9 7b ff ff ff       	jmpq   400e80 <register_tm_clones>
  400f05:	0f 1f 00             	nopl   (%rax)
  400f08:	e9 73 ff ff ff       	jmpq   400e80 <register_tm_clones>
  400f0d:	0f 1f 00             	nopl   (%rax)

0000000000400f10 <usage>:
  400f10:	48 83 ec 08          	sub    $0x8,%rsp
  400f14:	48 89 fe             	mov    %rdi,%rsi
  400f17:	83 3d ea 45 20 00 00 	cmpl   $0x0,0x2045ea(%rip)        # 605508 <is_checker>
  400f1e:	74 39                	je     400f59 <usage+0x49>
  400f20:	bf a0 2c 40 00       	mov    $0x402ca0,%edi
  400f25:	b8 00 00 00 00       	mov    $0x0,%eax
  400f2a:	e8 51 fd ff ff       	callq  400c80 <printf@plt>
  400f2f:	bf d8 2c 40 00       	mov    $0x402cd8,%edi
  400f34:	e8 17 fd ff ff       	callq  400c50 <puts@plt>
  400f39:	bf 50 2e 40 00       	mov    $0x402e50,%edi
  400f3e:	e8 0d fd ff ff       	callq  400c50 <puts@plt>
  400f43:	bf 00 2d 40 00       	mov    $0x402d00,%edi
  400f48:	e8 03 fd ff ff       	callq  400c50 <puts@plt>
  400f4d:	bf 6a 2e 40 00       	mov    $0x402e6a,%edi
  400f52:	e8 f9 fc ff ff       	callq  400c50 <puts@plt>
  400f57:	eb 2d                	jmp    400f86 <usage+0x76>
  400f59:	bf 86 2e 40 00       	mov    $0x402e86,%edi
  400f5e:	b8 00 00 00 00       	mov    $0x0,%eax
  400f63:	e8 18 fd ff ff       	callq  400c80 <printf@plt>
  400f68:	bf 28 2d 40 00       	mov    $0x402d28,%edi
  400f6d:	e8 de fc ff ff       	callq  400c50 <puts@plt>
  400f72:	bf 50 2d 40 00       	mov    $0x402d50,%edi
  400f77:	e8 d4 fc ff ff       	callq  400c50 <puts@plt>
  400f7c:	bf a4 2e 40 00       	mov    $0x402ea4,%edi
  400f81:	e8 ca fc ff ff       	callq  400c50 <puts@plt>
  400f86:	bf 00 00 00 00       	mov    $0x0,%edi
  400f8b:	e8 60 fe ff ff       	callq  400df0 <exit@plt>

0000000000400f90 <initialize_target>:
  400f90:	55                   	push   %rbp
  400f91:	53                   	push   %rbx
  400f92:	48 81 ec 08 21 00 00 	sub    $0x2108,%rsp
  400f99:	89 f5                	mov    %esi,%ebp
  400f9b:	89 3d 57 45 20 00    	mov    %edi,0x204557(%rip)        # 6054f8 <check_level>
  400fa1:	8b 3d c1 41 20 00    	mov    0x2041c1(%rip),%edi        # 605168 <target_id>
  400fa7:	e8 3a 1c 00 00       	callq  402be6 <gencookie>
  400fac:	89 05 52 45 20 00    	mov    %eax,0x204552(%rip)        # 605504 <cookie>
  400fb2:	89 c7                	mov    %eax,%edi
  400fb4:	e8 2d 1c 00 00       	callq  402be6 <gencookie>
  400fb9:	89 05 41 45 20 00    	mov    %eax,0x204541(%rip)        # 605500 <authkey>
  400fbf:	8b 05 a3 41 20 00    	mov    0x2041a3(%rip),%eax        # 605168 <target_id>
  400fc5:	8d 78 01             	lea    0x1(%rax),%edi
  400fc8:	e8 53 fc ff ff       	callq  400c20 <srandom@plt>
  400fcd:	e8 7e fd ff ff       	callq  400d50 <random@plt>
  400fd2:	89 c7                	mov    %eax,%edi
  400fd4:	e8 cb 02 00 00       	callq  4012a4 <scramble>
  400fd9:	89 c3                	mov    %eax,%ebx
  400fdb:	85 ed                	test   %ebp,%ebp
  400fdd:	74 18                	je     400ff7 <initialize_target+0x67>
  400fdf:	bf 00 00 00 00       	mov    $0x0,%edi
  400fe4:	e8 57 fd ff ff       	callq  400d40 <time@plt>
  400fe9:	89 c7                	mov    %eax,%edi
  400feb:	e8 30 fc ff ff       	callq  400c20 <srandom@plt>
  400ff0:	e8 5b fd ff ff       	callq  400d50 <random@plt>
  400ff5:	eb 05                	jmp    400ffc <initialize_target+0x6c>
  400ff7:	b8 00 00 00 00       	mov    $0x0,%eax
  400ffc:	01 c3                	add    %eax,%ebx
  400ffe:	0f b7 db             	movzwl %bx,%ebx
  401001:	8d 04 dd 00 01 00 00 	lea    0x100(,%rbx,8),%eax
  401008:	89 c0                	mov    %eax,%eax
  40100a:	48 89 05 8f 44 20 00 	mov    %rax,0x20448f(%rip)        # 6054a0 <buf_offset>
  401011:	c6 05 10 51 20 00 72 	movb   $0x72,0x205110(%rip)        # 606128 <target_prefix>
  401018:	83 3d 89 44 20 00 00 	cmpl   $0x0,0x204489(%rip)        # 6054a8 <notify>
  40101f:	0f 84 b1 00 00 00    	je     4010d6 <initialize_target+0x146>
  401025:	83 3d dc 44 20 00 00 	cmpl   $0x0,0x2044dc(%rip)        # 605508 <is_checker>
  40102c:	0f 85 a4 00 00 00    	jne    4010d6 <initialize_target+0x146>
  401032:	be 00 01 00 00       	mov    $0x100,%esi
  401037:	48 89 e7             	mov    %rsp,%rdi
  40103a:	e8 91 fd ff ff       	callq  400dd0 <gethostname@plt>
  40103f:	85 c0                	test   %eax,%eax
  401041:	74 25                	je     401068 <initialize_target+0xd8>
  401043:	bf 80 2d 40 00       	mov    $0x402d80,%edi
  401048:	e8 03 fc ff ff       	callq  400c50 <puts@plt>
  40104d:	bf 08 00 00 00       	mov    $0x8,%edi
  401052:	e8 99 fd ff ff       	callq  400df0 <exit@plt>
  401057:	48 89 e6             	mov    %rsp,%rsi
  40105a:	e8 a1 fb ff ff       	callq  400c00 <strcasecmp@plt>
  40105f:	85 c0                	test   %eax,%eax
  401061:	74 21                	je     401084 <initialize_target+0xf4>
  401063:	83 c3 01             	add    $0x1,%ebx
  401066:	eb 05                	jmp    40106d <initialize_target+0xdd>
  401068:	bb 00 00 00 00       	mov    $0x0,%ebx
  40106d:	48 63 c3             	movslq %ebx,%rax
  401070:	48 8b 3c c5 80 51 60 	mov    0x605180(,%rax,8),%rdi
  401077:	00 
  401078:	48 85 ff             	test   %rdi,%rdi
  40107b:	75 da                	jne    401057 <initialize_target+0xc7>
  40107d:	b8 00 00 00 00       	mov    $0x0,%eax
  401082:	eb 05                	jmp    401089 <initialize_target+0xf9>
  401084:	b8 01 00 00 00       	mov    $0x1,%eax
  401089:	85 c0                	test   %eax,%eax
  40108b:	75 17                	jne    4010a4 <initialize_target+0x114>
  40108d:	48 89 e6             	mov    %rsp,%rsi
  401090:	bf b8 2d 40 00       	mov    $0x402db8,%edi
  401095:	e8 e6 fb ff ff       	callq  400c80 <printf@plt>
  40109a:	bf 08 00 00 00       	mov    $0x8,%edi
  40109f:	e8 4c fd ff ff       	callq  400df0 <exit@plt>
  4010a4:	48 8d bc 24 00 01 00 	lea    0x100(%rsp),%rdi
  4010ab:	00 
  4010ac:	e8 c9 18 00 00       	callq  40297a <init_driver>
  4010b1:	85 c0                	test   %eax,%eax
  4010b3:	79 21                	jns    4010d6 <initialize_target+0x146>
  4010b5:	48 8d b4 24 00 01 00 	lea    0x100(%rsp),%rsi
  4010bc:	00 
  4010bd:	bf f8 2d 40 00       	mov    $0x402df8,%edi
  4010c2:	b8 00 00 00 00       	mov    $0x0,%eax
  4010c7:	e8 b4 fb ff ff       	callq  400c80 <printf@plt>
  4010cc:	bf 08 00 00 00       	mov    $0x8,%edi
  4010d1:	e8 1a fd ff ff       	callq  400df0 <exit@plt>
  4010d6:	48 81 c4 08 21 00 00 	add    $0x2108,%rsp
  4010dd:	5b                   	pop    %rbx
  4010de:	5d                   	pop    %rbp
  4010df:	c3                   	retq   

00000000004010e0 <main>:
  4010e0:	41 56                	push   %r14
  4010e2:	41 55                	push   %r13
  4010e4:	41 54                	push   %r12
  4010e6:	55                   	push   %rbp
  4010e7:	53                   	push   %rbx
  4010e8:	41 89 fc             	mov    %edi,%r12d
  4010eb:	48 89 f3             	mov    %rsi,%rbx
  4010ee:	be a1 1d 40 00       	mov    $0x401da1,%esi
  4010f3:	bf 0b 00 00 00       	mov    $0xb,%edi
  4010f8:	e8 e3 fb ff ff       	callq  400ce0 <signal@plt>
  4010fd:	be 53 1d 40 00       	mov    $0x401d53,%esi
  401102:	bf 07 00 00 00       	mov    $0x7,%edi
  401107:	e8 d4 fb ff ff       	callq  400ce0 <signal@plt>
  40110c:	be ef 1d 40 00       	mov    $0x401def,%esi
  401111:	bf 04 00 00 00       	mov    $0x4,%edi
  401116:	e8 c5 fb ff ff       	callq  400ce0 <signal@plt>
  40111b:	83 3d e6 43 20 00 00 	cmpl   $0x0,0x2043e6(%rip)        # 605508 <is_checker>
  401122:	74 20                	je     401144 <main+0x64>
  401124:	be 3d 1e 40 00       	mov    $0x401e3d,%esi
  401129:	bf 0e 00 00 00       	mov    $0xe,%edi
  40112e:	e8 ad fb ff ff       	callq  400ce0 <signal@plt>
  401133:	bf 05 00 00 00       	mov    $0x5,%edi
  401138:	e8 63 fb ff ff       	callq  400ca0 <alarm@plt>
  40113d:	bd c2 2e 40 00       	mov    $0x402ec2,%ebp
  401142:	eb 05                	jmp    401149 <main+0x69>
  401144:	bd bd 2e 40 00       	mov    $0x402ebd,%ebp
  401149:	48 8b 05 70 43 20 00 	mov    0x204370(%rip),%rax        # 6054c0 <stdin@@GLIBC_2.2.5>
  401150:	48 89 05 99 43 20 00 	mov    %rax,0x204399(%rip)        # 6054f0 <infile>
  401157:	41 bd 00 00 00 00    	mov    $0x0,%r13d
  40115d:	41 be 00 00 00 00    	mov    $0x0,%r14d
  401163:	e9 b9 00 00 00       	jmpq   401221 <main+0x141>
  401168:	83 e8 61             	sub    $0x61,%eax
  40116b:	3c 10                	cmp    $0x10,%al
  40116d:	0f 87 93 00 00 00    	ja     401206 <main+0x126>
  401173:	0f b6 c0             	movzbl %al,%eax
  401176:	ff 24 c5 08 2f 40 00 	jmpq   *0x402f08(,%rax,8)
  40117d:	48 8b 3b             	mov    (%rbx),%rdi
  401180:	e8 8b fd ff ff       	callq  400f10 <usage>
  401185:	be 9d 31 40 00       	mov    $0x40319d,%esi
  40118a:	48 8b 3d 37 43 20 00 	mov    0x204337(%rip),%rdi        # 6054c8 <optarg@@GLIBC_2.2.5>
  401191:	e8 0a fc ff ff       	callq  400da0 <fopen@plt>
  401196:	48 89 05 53 43 20 00 	mov    %rax,0x204353(%rip)        # 6054f0 <infile>
  40119d:	48 85 c0             	test   %rax,%rax
  4011a0:	75 7f                	jne    401221 <main+0x141>
  4011a2:	48 8b 15 1f 43 20 00 	mov    0x20431f(%rip),%rdx        # 6054c8 <optarg@@GLIBC_2.2.5>
  4011a9:	be ca 2e 40 00       	mov    $0x402eca,%esi
  4011ae:	48 8b 3d 1b 43 20 00 	mov    0x20431b(%rip),%rdi        # 6054d0 <stderr@@GLIBC_2.2.5>
  4011b5:	e8 46 fb ff ff       	callq  400d00 <fprintf@plt>
  4011ba:	b8 01 00 00 00       	mov    $0x1,%eax
  4011bf:	e9 d6 00 00 00       	jmpq   40129a <main+0x1ba>
  4011c4:	ba 10 00 00 00       	mov    $0x10,%edx
  4011c9:	be 00 00 00 00       	mov    $0x0,%esi
  4011ce:	48 8b 3d f3 42 20 00 	mov    0x2042f3(%rip),%rdi        # 6054c8 <optarg@@GLIBC_2.2.5>
  4011d5:	e8 e6 fb ff ff       	callq  400dc0 <strtoul@plt>
  4011da:	41 89 c6             	mov    %eax,%r14d
  4011dd:	eb 42                	jmp    401221 <main+0x141>
  4011df:	ba 0a 00 00 00       	mov    $0xa,%edx
  4011e4:	be 00 00 00 00       	mov    $0x0,%esi
  4011e9:	48 8b 3d d8 42 20 00 	mov    0x2042d8(%rip),%rdi        # 6054c8 <optarg@@GLIBC_2.2.5>
  4011f0:	e8 2b fb ff ff       	callq  400d20 <strtol@plt>
  4011f5:	41 89 c5             	mov    %eax,%r13d
  4011f8:	eb 27                	jmp    401221 <main+0x141>
  4011fa:	c7 05 a4 42 20 00 00 	movl   $0x0,0x2042a4(%rip)        # 6054a8 <notify>
  401201:	00 00 00 
  401204:	eb 1b                	jmp    401221 <main+0x141>
  401206:	40 0f be f6          	movsbl %sil,%esi
  40120a:	bf e7 2e 40 00       	mov    $0x402ee7,%edi
  40120f:	b8 00 00 00 00       	mov    $0x0,%eax
  401214:	e8 67 fa ff ff       	callq  400c80 <printf@plt>
  401219:	48 8b 3b             	mov    (%rbx),%rdi
  40121c:	e8 ef fc ff ff       	callq  400f10 <usage>
  401221:	48 89 ea             	mov    %rbp,%rdx
  401224:	48 89 de             	mov    %rbx,%rsi
  401227:	44 89 e7             	mov    %r12d,%edi
  40122a:	e8 81 fb ff ff       	callq  400db0 <getopt@plt>
  40122f:	89 c6                	mov    %eax,%esi
  401231:	3c ff                	cmp    $0xff,%al
  401233:	0f 85 2f ff ff ff    	jne    401168 <main+0x88>
  401239:	be 01 00 00 00       	mov    $0x1,%esi
  40123e:	44 89 ef             	mov    %r13d,%edi
  401241:	e8 4a fd ff ff       	callq  400f90 <initialize_target>
  401246:	83 3d bb 42 20 00 00 	cmpl   $0x0,0x2042bb(%rip)        # 605508 <is_checker>
  40124d:	74 25                	je     401274 <main+0x194>
  40124f:	44 3b 35 aa 42 20 00 	cmp    0x2042aa(%rip),%r14d        # 605500 <authkey>
  401256:	74 1c                	je     401274 <main+0x194>
  401258:	44 89 f6             	mov    %r14d,%esi
  40125b:	bf 20 2e 40 00       	mov    $0x402e20,%edi
  401260:	b8 00 00 00 00       	mov    $0x0,%eax
  401265:	e8 16 fa ff ff       	callq  400c80 <printf@plt>
  40126a:	b8 00 00 00 00       	mov    $0x0,%eax
  40126f:	e8 e7 07 00 00       	callq  401a5b <check_fail>
  401274:	8b 35 8a 42 20 00    	mov    0x20428a(%rip),%esi        # 605504 <cookie>
  40127a:	bf fa 2e 40 00       	mov    $0x402efa,%edi
  40127f:	b8 00 00 00 00       	mov    $0x0,%eax
  401284:	e8 f7 f9 ff ff       	callq  400c80 <printf@plt>
  401289:	48 8b 3d 10 42 20 00 	mov    0x204210(%rip),%rdi        # 6054a0 <buf_offset>
  401290:	e8 f6 0b 00 00       	callq  401e8b <launch>
  401295:	b8 00 00 00 00       	mov    $0x0,%eax
  40129a:	5b                   	pop    %rbx
  40129b:	5d                   	pop    %rbp
  40129c:	41 5c                	pop    %r12
  40129e:	41 5d                	pop    %r13
  4012a0:	41 5e                	pop    %r14
  4012a2:	c3                   	retq   
  4012a3:	90                   	nop

00000000004012a4 <scramble>:
  4012a4:	b8 00 00 00 00       	mov    $0x0,%eax
  4012a9:	eb 11                	jmp    4012bc <scramble+0x18>
  4012ab:	69 c8 24 a6 00 00    	imul   $0xa624,%eax,%ecx
  4012b1:	01 f9                	add    %edi,%ecx
  4012b3:	89 c2                	mov    %eax,%edx
  4012b5:	89 4c 94 d0          	mov    %ecx,-0x30(%rsp,%rdx,4)
  4012b9:	83 c0 01             	add    $0x1,%eax
  4012bc:	83 f8 09             	cmp    $0x9,%eax
  4012bf:	76 ea                	jbe    4012ab <scramble+0x7>
  4012c1:	8b 44 24 f0          	mov    -0x10(%rsp),%eax
  4012c5:	69 c0 fd 44 00 00    	imul   $0x44fd,%eax,%eax
  4012cb:	89 44 24 f0          	mov    %eax,-0x10(%rsp)
  4012cf:	8b 44 24 e4          	mov    -0x1c(%rsp),%eax
  4012d3:	69 c0 08 e3 00 00    	imul   $0xe308,%eax,%eax
  4012d9:	89 44 24 e4          	mov    %eax,-0x1c(%rsp)
  4012dd:	8b 44 24 dc          	mov    -0x24(%rsp),%eax
  4012e1:	69 c0 63 d3 00 00    	imul   $0xd363,%eax,%eax
  4012e7:	89 44 24 dc          	mov    %eax,-0x24(%rsp)
  4012eb:	8b 44 24 e4          	mov    -0x1c(%rsp),%eax
  4012ef:	69 c0 e7 dc 00 00    	imul   $0xdce7,%eax,%eax
  4012f5:	89 44 24 e4          	mov    %eax,-0x1c(%rsp)
  4012f9:	8b 44 24 f0          	mov    -0x10(%rsp),%eax
  4012fd:	69 c0 d3 76 00 00    	imul   $0x76d3,%eax,%eax
  401303:	89 44 24 f0          	mov    %eax,-0x10(%rsp)
  401307:	8b 44 24 d8          	mov    -0x28(%rsp),%eax
  40130b:	69 c0 31 36 00 00    	imul   $0x3631,%eax,%eax
  401311:	89 44 24 d8          	mov    %eax,-0x28(%rsp)
  401315:	8b 44 24 dc          	mov    -0x24(%rsp),%eax
  401319:	69 c0 0c 5d 00 00    	imul   $0x5d0c,%eax,%eax
  40131f:	89 44 24 dc          	mov    %eax,-0x24(%rsp)
  401323:	8b 44 24 dc          	mov    -0x24(%rsp),%eax
  401327:	69 c0 54 fd 00 00    	imul   $0xfd54,%eax,%eax
  40132d:	89 44 24 dc          	mov    %eax,-0x24(%rsp)
  401331:	8b 44 24 f0          	mov    -0x10(%rsp),%eax
  401335:	69 c0 19 70 00 00    	imul   $0x7019,%eax,%eax
  40133b:	89 44 24 f0          	mov    %eax,-0x10(%rsp)
  40133f:	8b 44 24 f0          	mov    -0x10(%rsp),%eax
  401343:	69 c0 d1 01 00 00    	imul   $0x1d1,%eax,%eax
  401349:	89 44 24 f0          	mov    %eax,-0x10(%rsp)
  40134d:	8b 44 24 d4          	mov    -0x2c(%rsp),%eax
  401351:	69 c0 f7 a8 00 00    	imul   $0xa8f7,%eax,%eax
  401357:	89 44 24 d4          	mov    %eax,-0x2c(%rsp)
  40135b:	8b 44 24 e4          	mov    -0x1c(%rsp),%eax
  40135f:	69 c0 d3 ac 00 00    	imul   $0xacd3,%eax,%eax
  401365:	89 44 24 e4          	mov    %eax,-0x1c(%rsp)
  401369:	8b 44 24 f4          	mov    -0xc(%rsp),%eax
  40136d:	69 c0 7c 90 00 00    	imul   $0x907c,%eax,%eax
  401373:	89 44 24 f4          	mov    %eax,-0xc(%rsp)
  401377:	8b 44 24 f4          	mov    -0xc(%rsp),%eax
  40137b:	69 c0 4d 52 00 00    	imul   $0x524d,%eax,%eax
  401381:	89 44 24 f4          	mov    %eax,-0xc(%rsp)
  401385:	8b 44 24 e0          	mov    -0x20(%rsp),%eax
  401389:	69 c0 65 87 00 00    	imul   $0x8765,%eax,%eax
  40138f:	89 44 24 e0          	mov    %eax,-0x20(%rsp)
  401393:	8b 44 24 f0          	mov    -0x10(%rsp),%eax
  401397:	69 c0 a1 d7 00 00    	imul   $0xd7a1,%eax,%eax
  40139d:	89 44 24 f0          	mov    %eax,-0x10(%rsp)
  4013a1:	8b 44 24 d0          	mov    -0x30(%rsp),%eax
  4013a5:	69 c0 61 da 00 00    	imul   $0xda61,%eax,%eax
  4013ab:	89 44 24 d0          	mov    %eax,-0x30(%rsp)
  4013af:	8b 44 24 f0          	mov    -0x10(%rsp),%eax
  4013b3:	69 c0 77 0f 00 00    	imul   $0xf77,%eax,%eax
  4013b9:	89 44 24 f0          	mov    %eax,-0x10(%rsp)
  4013bd:	8b 44 24 f4          	mov    -0xc(%rsp),%eax
  4013c1:	69 c0 17 a1 00 00    	imul   $0xa117,%eax,%eax
  4013c7:	89 44 24 f4          	mov    %eax,-0xc(%rsp)
  4013cb:	8b 44 24 d8          	mov    -0x28(%rsp),%eax
  4013cf:	69 c0 95 35 00 00    	imul   $0x3595,%eax,%eax
  4013d5:	89 44 24 d8          	mov    %eax,-0x28(%rsp)
  4013d9:	8b 44 24 e8          	mov    -0x18(%rsp),%eax
  4013dd:	69 c0 59 cb 00 00    	imul   $0xcb59,%eax,%eax
  4013e3:	89 44 24 e8          	mov    %eax,-0x18(%rsp)
  4013e7:	8b 44 24 ec          	mov    -0x14(%rsp),%eax
  4013eb:	69 c0 f8 c0 00 00    	imul   $0xc0f8,%eax,%eax
  4013f1:	89 44 24 ec          	mov    %eax,-0x14(%rsp)
  4013f5:	8b 44 24 f4          	mov    -0xc(%rsp),%eax
  4013f9:	69 c0 99 c3 00 00    	imul   $0xc399,%eax,%eax
  4013ff:	89 44 24 f4          	mov    %eax,-0xc(%rsp)
  401403:	8b 44 24 f0          	mov    -0x10(%rsp),%eax
  401407:	69 c0 7f 60 00 00    	imul   $0x607f,%eax,%eax
  40140d:	89 44 24 f0          	mov    %eax,-0x10(%rsp)
  401411:	8b 44 24 d8          	mov    -0x28(%rsp),%eax
  401415:	69 c0 09 49 00 00    	imul   $0x4909,%eax,%eax
  40141b:	89 44 24 d8          	mov    %eax,-0x28(%rsp)
  40141f:	8b 44 24 f0          	mov    -0x10(%rsp),%eax
  401423:	69 c0 b0 3b 00 00    	imul   $0x3bb0,%eax,%eax
  401429:	89 44 24 f0          	mov    %eax,-0x10(%rsp)
  40142d:	8b 44 24 ec          	mov    -0x14(%rsp),%eax
  401431:	69 c0 f1 9f 00 00    	imul   $0x9ff1,%eax,%eax
  401437:	89 44 24 ec          	mov    %eax,-0x14(%rsp)
  40143b:	8b 44 24 f0          	mov    -0x10(%rsp),%eax
  40143f:	69 c0 83 ca 00 00    	imul   $0xca83,%eax,%eax
  401445:	89 44 24 f0          	mov    %eax,-0x10(%rsp)
  401449:	8b 44 24 dc          	mov    -0x24(%rsp),%eax
  40144d:	69 c0 c5 a7 00 00    	imul   $0xa7c5,%eax,%eax
  401453:	89 44 24 dc          	mov    %eax,-0x24(%rsp)
  401457:	8b 44 24 e0          	mov    -0x20(%rsp),%eax
  40145b:	69 c0 eb 61 00 00    	imul   $0x61eb,%eax,%eax
  401461:	89 44 24 e0          	mov    %eax,-0x20(%rsp)
  401465:	8b 44 24 dc          	mov    -0x24(%rsp),%eax
  401469:	69 c0 89 e8 00 00    	imul   $0xe889,%eax,%eax
  40146f:	89 44 24 dc          	mov    %eax,-0x24(%rsp)
  401473:	8b 44 24 e0          	mov    -0x20(%rsp),%eax
  401477:	69 c0 8c fb 00 00    	imul   $0xfb8c,%eax,%eax
  40147d:	89 44 24 e0          	mov    %eax,-0x20(%rsp)
  401481:	8b 44 24 d0          	mov    -0x30(%rsp),%eax
  401485:	69 c0 37 f4 00 00    	imul   $0xf437,%eax,%eax
  40148b:	89 44 24 d0          	mov    %eax,-0x30(%rsp)
  40148f:	8b 44 24 d8          	mov    -0x28(%rsp),%eax
  401493:	69 c0 ae 70 00 00    	imul   $0x70ae,%eax,%eax
  401499:	89 44 24 d8          	mov    %eax,-0x28(%rsp)
  40149d:	8b 44 24 f4          	mov    -0xc(%rsp),%eax
  4014a1:	69 c0 63 f7 00 00    	imul   $0xf763,%eax,%eax
  4014a7:	89 44 24 f4          	mov    %eax,-0xc(%rsp)
  4014ab:	8b 44 24 f0          	mov    -0x10(%rsp),%eax
  4014af:	69 c0 39 ad 00 00    	imul   $0xad39,%eax,%eax
  4014b5:	89 44 24 f0          	mov    %eax,-0x10(%rsp)
  4014b9:	8b 44 24 dc          	mov    -0x24(%rsp),%eax
  4014bd:	69 c0 0a 12 00 00    	imul   $0x120a,%eax,%eax
  4014c3:	89 44 24 dc          	mov    %eax,-0x24(%rsp)
  4014c7:	8b 44 24 ec          	mov    -0x14(%rsp),%eax
  4014cb:	69 c0 21 eb 00 00    	imul   $0xeb21,%eax,%eax
  4014d1:	89 44 24 ec          	mov    %eax,-0x14(%rsp)
  4014d5:	8b 44 24 f0          	mov    -0x10(%rsp),%eax
  4014d9:	69 c0 7e 2c 00 00    	imul   $0x2c7e,%eax,%eax
  4014df:	89 44 24 f0          	mov    %eax,-0x10(%rsp)
  4014e3:	8b 44 24 e0          	mov    -0x20(%rsp),%eax
  4014e7:	69 c0 56 09 00 00    	imul   $0x956,%eax,%eax
  4014ed:	89 44 24 e0          	mov    %eax,-0x20(%rsp)
  4014f1:	8b 44 24 e8          	mov    -0x18(%rsp),%eax
  4014f5:	69 c0 f1 ad 00 00    	imul   $0xadf1,%eax,%eax
  4014fb:	89 44 24 e8          	mov    %eax,-0x18(%rsp)
  4014ff:	8b 44 24 e8          	mov    -0x18(%rsp),%eax
  401503:	69 c0 88 67 00 00    	imul   $0x6788,%eax,%eax
  401509:	89 44 24 e8          	mov    %eax,-0x18(%rsp)
  40150d:	8b 44 24 d0          	mov    -0x30(%rsp),%eax
  401511:	69 c0 8a 2d 00 00    	imul   $0x2d8a,%eax,%eax
  401517:	89 44 24 d0          	mov    %eax,-0x30(%rsp)
  40151b:	8b 44 24 ec          	mov    -0x14(%rsp),%eax
  40151f:	69 c0 50 7e 00 00    	imul   $0x7e50,%eax,%eax
  401525:	89 44 24 ec          	mov    %eax,-0x14(%rsp)
  401529:	8b 44 24 e0          	mov    -0x20(%rsp),%eax
  40152d:	69 c0 dd 4e 00 00    	imul   $0x4edd,%eax,%eax
  401533:	89 44 24 e0          	mov    %eax,-0x20(%rsp)
  401537:	8b 44 24 d8          	mov    -0x28(%rsp),%eax
  40153b:	69 c0 79 04 00 00    	imul   $0x479,%eax,%eax
  401541:	89 44 24 d8          	mov    %eax,-0x28(%rsp)
  401545:	8b 44 24 e4          	mov    -0x1c(%rsp),%eax
  401549:	69 c0 c9 19 00 00    	imul   $0x19c9,%eax,%eax
  40154f:	89 44 24 e4          	mov    %eax,-0x1c(%rsp)
  401553:	8b 44 24 e8          	mov    -0x18(%rsp),%eax
  401557:	69 c0 51 fa 00 00    	imul   $0xfa51,%eax,%eax
  40155d:	89 44 24 e8          	mov    %eax,-0x18(%rsp)
  401561:	8b 44 24 d4          	mov    -0x2c(%rsp),%eax
  401565:	69 c0 09 0b 00 00    	imul   $0xb09,%eax,%eax
  40156b:	89 44 24 d4          	mov    %eax,-0x2c(%rsp)
  40156f:	8b 44 24 f0          	mov    -0x10(%rsp),%eax
  401573:	69 c0 4e a3 00 00    	imul   $0xa34e,%eax,%eax
  401579:	89 44 24 f0          	mov    %eax,-0x10(%rsp)
  40157d:	8b 44 24 e4          	mov    -0x1c(%rsp),%eax
  401581:	69 c0 43 11 00 00    	imul   $0x1143,%eax,%eax
  401587:	89 44 24 e4          	mov    %eax,-0x1c(%rsp)
  40158b:	8b 44 24 f4          	mov    -0xc(%rsp),%eax
  40158f:	69 c0 28 c5 00 00    	imul   $0xc528,%eax,%eax
  401595:	89 44 24 f4          	mov    %eax,-0xc(%rsp)
  401599:	8b 44 24 e0          	mov    -0x20(%rsp),%eax
  40159d:	69 c0 b9 be 00 00    	imul   $0xbeb9,%eax,%eax
  4015a3:	89 44 24 e0          	mov    %eax,-0x20(%rsp)
  4015a7:	8b 44 24 e4          	mov    -0x1c(%rsp),%eax
  4015ab:	69 c0 f0 f8 00 00    	imul   $0xf8f0,%eax,%eax
  4015b1:	89 44 24 e4          	mov    %eax,-0x1c(%rsp)
  4015b5:	8b 44 24 e8          	mov    -0x18(%rsp),%eax
  4015b9:	69 c0 ea fb 00 00    	imul   $0xfbea,%eax,%eax
  4015bf:	89 44 24 e8          	mov    %eax,-0x18(%rsp)
  4015c3:	8b 44 24 dc          	mov    -0x24(%rsp),%eax
  4015c7:	69 c0 bf 60 00 00    	imul   $0x60bf,%eax,%eax
  4015cd:	89 44 24 dc          	mov    %eax,-0x24(%rsp)
  4015d1:	8b 44 24 e8          	mov    -0x18(%rsp),%eax
  4015d5:	69 c0 4d 47 00 00    	imul   $0x474d,%eax,%eax
  4015db:	89 44 24 e8          	mov    %eax,-0x18(%rsp)
  4015df:	8b 44 24 dc          	mov    -0x24(%rsp),%eax
  4015e3:	69 c0 be f7 00 00    	imul   $0xf7be,%eax,%eax
  4015e9:	89 44 24 dc          	mov    %eax,-0x24(%rsp)
  4015ed:	8b 44 24 f0          	mov    -0x10(%rsp),%eax
  4015f1:	69 c0 54 fa 00 00    	imul   $0xfa54,%eax,%eax
  4015f7:	89 44 24 f0          	mov    %eax,-0x10(%rsp)
  4015fb:	8b 44 24 dc          	mov    -0x24(%rsp),%eax
  4015ff:	69 c0 26 4a 00 00    	imul   $0x4a26,%eax,%eax
  401605:	89 44 24 dc          	mov    %eax,-0x24(%rsp)
  401609:	8b 44 24 dc          	mov    -0x24(%rsp),%eax
  40160d:	69 c0 4a 56 00 00    	imul   $0x564a,%eax,%eax
  401613:	89 44 24 dc          	mov    %eax,-0x24(%rsp)
  401617:	8b 44 24 dc          	mov    -0x24(%rsp),%eax
  40161b:	69 c0 97 80 00 00    	imul   $0x8097,%eax,%eax
  401621:	89 44 24 dc          	mov    %eax,-0x24(%rsp)
  401625:	8b 44 24 e0          	mov    -0x20(%rsp),%eax
  401629:	69 c0 a4 4e 00 00    	imul   $0x4ea4,%eax,%eax
  40162f:	89 44 24 e0          	mov    %eax,-0x20(%rsp)
  401633:	8b 44 24 f0          	mov    -0x10(%rsp),%eax
  401637:	69 c0 13 7e 00 00    	imul   $0x7e13,%eax,%eax
  40163d:	89 44 24 f0          	mov    %eax,-0x10(%rsp)
  401641:	8b 44 24 f0          	mov    -0x10(%rsp),%eax
  401645:	69 c0 e8 e5 00 00    	imul   $0xe5e8,%eax,%eax
  40164b:	89 44 24 f0          	mov    %eax,-0x10(%rsp)
  40164f:	8b 44 24 ec          	mov    -0x14(%rsp),%eax
  401653:	69 c0 1a 5c 00 00    	imul   $0x5c1a,%eax,%eax
  401659:	89 44 24 ec          	mov    %eax,-0x14(%rsp)
  40165d:	8b 44 24 e4          	mov    -0x1c(%rsp),%eax
  401661:	69 c0 e9 71 00 00    	imul   $0x71e9,%eax,%eax
  401667:	89 44 24 e4          	mov    %eax,-0x1c(%rsp)
  40166b:	8b 44 24 f0          	mov    -0x10(%rsp),%eax
  40166f:	69 c0 78 1a 00 00    	imul   $0x1a78,%eax,%eax
  401675:	89 44 24 f0          	mov    %eax,-0x10(%rsp)
  401679:	8b 44 24 e8          	mov    -0x18(%rsp),%eax
  40167d:	69 c0 8d d1 00 00    	imul   $0xd18d,%eax,%eax
  401683:	89 44 24 e8          	mov    %eax,-0x18(%rsp)
  401687:	8b 44 24 d4          	mov    -0x2c(%rsp),%eax
  40168b:	69 c0 da 1b 00 00    	imul   $0x1bda,%eax,%eax
  401691:	89 44 24 d4          	mov    %eax,-0x2c(%rsp)
  401695:	8b 44 24 ec          	mov    -0x14(%rsp),%eax
  401699:	69 c0 af 15 00 00    	imul   $0x15af,%eax,%eax
  40169f:	89 44 24 ec          	mov    %eax,-0x14(%rsp)
  4016a3:	8b 44 24 d8          	mov    -0x28(%rsp),%eax
  4016a7:	69 c0 53 77 00 00    	imul   $0x7753,%eax,%eax
  4016ad:	89 44 24 d8          	mov    %eax,-0x28(%rsp)
  4016b1:	8b 44 24 f4          	mov    -0xc(%rsp),%eax
  4016b5:	69 c0 e1 44 00 00    	imul   $0x44e1,%eax,%eax
  4016bb:	89 44 24 f4          	mov    %eax,-0xc(%rsp)
  4016bf:	8b 44 24 e4          	mov    -0x1c(%rsp),%eax
  4016c3:	69 c0 d3 d1 00 00    	imul   $0xd1d3,%eax,%eax
  4016c9:	89 44 24 e4          	mov    %eax,-0x1c(%rsp)
  4016cd:	8b 44 24 ec          	mov    -0x14(%rsp),%eax
  4016d1:	69 c0 1f e5 00 00    	imul   $0xe51f,%eax,%eax
  4016d7:	89 44 24 ec          	mov    %eax,-0x14(%rsp)
  4016db:	8b 44 24 d8          	mov    -0x28(%rsp),%eax
  4016df:	69 c0 66 88 00 00    	imul   $0x8866,%eax,%eax
  4016e5:	89 44 24 d8          	mov    %eax,-0x28(%rsp)
  4016e9:	8b 44 24 e8          	mov    -0x18(%rsp),%eax
  4016ed:	69 c0 98 6a 00 00    	imul   $0x6a98,%eax,%eax
  4016f3:	89 44 24 e8          	mov    %eax,-0x18(%rsp)
  4016f7:	8b 44 24 d8          	mov    -0x28(%rsp),%eax
  4016fb:	69 c0 7d ab 00 00    	imul   $0xab7d,%eax,%eax
  401701:	89 44 24 d8          	mov    %eax,-0x28(%rsp)
  401705:	ba 00 00 00 00       	mov    $0x0,%edx
  40170a:	b8 00 00 00 00       	mov    $0x0,%eax
  40170f:	eb 0b                	jmp    40171c <scramble+0x478>
  401711:	89 d1                	mov    %edx,%ecx
  401713:	8b 4c 8c d0          	mov    -0x30(%rsp,%rcx,4),%ecx
  401717:	01 c8                	add    %ecx,%eax
  401719:	83 c2 01             	add    $0x1,%edx
  40171c:	83 fa 09             	cmp    $0x9,%edx
  40171f:	76 f0                	jbe    401711 <scramble+0x46d>
  401721:	f3 c3                	repz retq 
  401723:	90                   	nop

0000000000401724 <getbuf>:
  401724:	48 83 ec 28          	sub    $0x28,%rsp
  401728:	48 89 e7             	mov    %rsp,%rdi
  40172b:	e8 5a 03 00 00       	callq  401a8a <Gets>
  401730:	b8 01 00 00 00       	mov    $0x1,%eax
  401735:	48 83 c4 28          	add    $0x28,%rsp
  401739:	c3                   	retq   
  40173a:	66 90                	xchg   %ax,%ax

000000000040173c <touch1>:
  40173c:	48 83 ec 08          	sub    $0x8,%rsp
  401740:	c7 05 b2 3d 20 00 01 	movl   $0x1,0x203db2(%rip)        # 6054fc <vlevel>
  401747:	00 00 00 
  40174a:	bf f2 2f 40 00       	mov    $0x402ff2,%edi
  40174f:	e8 fc f4 ff ff       	callq  400c50 <puts@plt>
  401754:	bf 01 00 00 00       	mov    $0x1,%edi
  401759:	e8 1b 05 00 00       	callq  401c79 <validate>
  40175e:	bf 00 00 00 00       	mov    $0x0,%edi
  401763:	e8 88 f6 ff ff       	callq  400df0 <exit@plt>

0000000000401768 <touch2>:
  401768:	48 83 ec 08          	sub    $0x8,%rsp
  40176c:	89 fe                	mov    %edi,%esi
  40176e:	c7 05 84 3d 20 00 02 	movl   $0x2,0x203d84(%rip)        # 6054fc <vlevel>
  401775:	00 00 00 
  401778:	3b 3d 86 3d 20 00    	cmp    0x203d86(%rip),%edi        # 605504 <cookie>
  40177e:	75 1b                	jne    40179b <touch2+0x33>
  401780:	bf 18 30 40 00       	mov    $0x403018,%edi
  401785:	b8 00 00 00 00       	mov    $0x0,%eax
  40178a:	e8 f1 f4 ff ff       	callq  400c80 <printf@plt>
  40178f:	bf 02 00 00 00       	mov    $0x2,%edi
  401794:	e8 e0 04 00 00       	callq  401c79 <validate>
  401799:	eb 19                	jmp    4017b4 <touch2+0x4c>
  40179b:	bf 40 30 40 00       	mov    $0x403040,%edi
  4017a0:	b8 00 00 00 00       	mov    $0x0,%eax
  4017a5:	e8 d6 f4 ff ff       	callq  400c80 <printf@plt>
  4017aa:	bf 02 00 00 00       	mov    $0x2,%edi
  4017af:	e8 77 05 00 00       	callq  401d2b <fail>
  4017b4:	bf 00 00 00 00       	mov    $0x0,%edi
  4017b9:	e8 32 f6 ff ff       	callq  400df0 <exit@plt>

00000000004017be <hexmatch>:
  4017be:	41 54                	push   %r12
  4017c0:	55                   	push   %rbp
  4017c1:	53                   	push   %rbx
  4017c2:	48 83 ec 70          	sub    $0x70,%rsp
  4017c6:	41 89 fc             	mov    %edi,%r12d
  4017c9:	48 89 f5             	mov    %rsi,%rbp
  4017cc:	e8 7f f5 ff ff       	callq  400d50 <random@plt>
  4017d1:	48 89 c1             	mov    %rax,%rcx
  4017d4:	48 ba 0b d7 a3 70 3d 	movabs $0xa3d70a3d70a3d70b,%rdx
  4017db:	0a d7 a3 
  4017de:	48 f7 ea             	imul   %rdx
  4017e1:	48 8d 04 0a          	lea    (%rdx,%rcx,1),%rax
  4017e5:	48 c1 f8 06          	sar    $0x6,%rax
  4017e9:	48 89 ce             	mov    %rcx,%rsi
  4017ec:	48 c1 fe 3f          	sar    $0x3f,%rsi
  4017f0:	48 29 f0             	sub    %rsi,%rax
  4017f3:	48 8d 04 80          	lea    (%rax,%rax,4),%rax
  4017f7:	48 8d 04 80          	lea    (%rax,%rax,4),%rax
  4017fb:	48 c1 e0 02          	shl    $0x2,%rax
  4017ff:	48 29 c1             	sub    %rax,%rcx
  401802:	48 8d 1c 0c          	lea    (%rsp,%rcx,1),%rbx
  401806:	44 89 e2             	mov    %r12d,%edx
  401809:	be 0f 30 40 00       	mov    $0x40300f,%esi
  40180e:	48 89 df             	mov    %rbx,%rdi
  401811:	b8 00 00 00 00       	mov    $0x0,%eax
  401816:	e8 c5 f5 ff ff       	callq  400de0 <sprintf@plt>
  40181b:	ba 09 00 00 00       	mov    $0x9,%edx
  401820:	48 89 de             	mov    %rbx,%rsi
  401823:	48 89 ef             	mov    %rbp,%rdi
  401826:	e8 05 f4 ff ff       	callq  400c30 <strncmp@plt>
  40182b:	85 c0                	test   %eax,%eax
  40182d:	0f 94 c0             	sete   %al
  401830:	0f b6 c0             	movzbl %al,%eax
  401833:	48 83 c4 70          	add    $0x70,%rsp
  401837:	5b                   	pop    %rbx
  401838:	5d                   	pop    %rbp
  401839:	41 5c                	pop    %r12
  40183b:	c3                   	retq   

000000000040183c <touch3>:
  40183c:	53                   	push   %rbx
  40183d:	48 89 fb             	mov    %rdi,%rbx
  401840:	c7 05 b2 3c 20 00 03 	movl   $0x3,0x203cb2(%rip)        # 6054fc <vlevel>
  401847:	00 00 00 
  40184a:	48 89 fe             	mov    %rdi,%rsi
  40184d:	8b 3d b1 3c 20 00    	mov    0x203cb1(%rip),%edi        # 605504 <cookie>
  401853:	e8 66 ff ff ff       	callq  4017be <hexmatch>
  401858:	85 c0                	test   %eax,%eax
  40185a:	74 1e                	je     40187a <touch3+0x3e>
  40185c:	48 89 de             	mov    %rbx,%rsi
  40185f:	bf 68 30 40 00       	mov    $0x403068,%edi
  401864:	b8 00 00 00 00       	mov    $0x0,%eax
  401869:	e8 12 f4 ff ff       	callq  400c80 <printf@plt>
  40186e:	bf 03 00 00 00       	mov    $0x3,%edi
  401873:	e8 01 04 00 00       	callq  401c79 <validate>
  401878:	eb 1c                	jmp    401896 <touch3+0x5a>
  40187a:	48 89 de             	mov    %rbx,%rsi
  40187d:	bf 90 30 40 00       	mov    $0x403090,%edi
  401882:	b8 00 00 00 00       	mov    $0x0,%eax
  401887:	e8 f4 f3 ff ff       	callq  400c80 <printf@plt>
  40188c:	bf 03 00 00 00       	mov    $0x3,%edi
  401891:	e8 95 04 00 00       	callq  401d2b <fail>
  401896:	bf 00 00 00 00       	mov    $0x0,%edi
  40189b:	e8 50 f5 ff ff       	callq  400df0 <exit@plt>

00000000004018a0 <test>:
  4018a0:	48 83 ec 08          	sub    $0x8,%rsp
  4018a4:	b8 00 00 00 00       	mov    $0x0,%eax
  4018a9:	e8 76 fe ff ff       	callq  401724 <getbuf>
  4018ae:	89 c6                	mov    %eax,%esi
  4018b0:	bf b8 30 40 00       	mov    $0x4030b8,%edi
  4018b5:	b8 00 00 00 00       	mov    $0x0,%eax
  4018ba:	e8 c1 f3 ff ff       	callq  400c80 <printf@plt>
  4018bf:	48 83 c4 08          	add    $0x8,%rsp
  4018c3:	c3                   	retq   

00000000004018c4 <start_farm>:
  4018c4:	b8 01 00 00 00       	mov    $0x1,%eax
  4018c9:	c3                   	retq   

00000000004018ca <setval_242>:
  4018ca:	c7 07 58 90 90 c3    	movl   $0xc3909058,(%rdi)
  4018d0:	c3                   	retq   

00000000004018d1 <addval_429>:
  4018d1:	8d 87 14 32 58 c3    	lea    -0x3ca7cdec(%rdi),%eax
  4018d7:	c3                   	retq   

00000000004018d8 <addval_114>:
  4018d8:	8d 87 af c8 89 c7    	lea    -0x38763751(%rdi),%eax
  4018de:	c3                   	retq   

00000000004018df <setval_177>:
  4018df:	c7 07 40 89 c7 c3    	movl   $0xc3c78940,(%rdi)
  4018e5:	c3                   	retq   

00000000004018e6 <getval_431>:
  4018e6:	b8 48 89 c7 c3       	mov    $0xc3c78948,%eax
  4018eb:	c3                   	retq   

00000000004018ec <addval_174>:
  4018ec:	8d 87 48 89 c7 90    	lea    -0x6f3876b8(%rdi),%eax
  4018f2:	c3                   	retq   

00000000004018f3 <setval_206>:
  4018f3:	c7 07 58 90 90 c1    	movl   $0xc1909058,(%rdi)
  4018f9:	c3                   	retq   

00000000004018fa <addval_306>:
  4018fa:	8d 87 58 c7 fb ce    	lea    -0x310438a8(%rdi),%eax
  401900:	c3                   	retq   

0000000000401901 <mid_farm>:
  401901:	b8 01 00 00 00       	mov    $0x1,%eax
  401906:	c3                   	retq   

0000000000401907 <add_xy>:
  401907:	48 8d 04 37          	lea    (%rdi,%rsi,1),%rax
  40190b:	c3                   	retq   

000000000040190c <getval_315>:
  40190c:	b8 89 c1 90 c3       	mov    $0xc390c189,%eax
  401911:	c3                   	retq   

0000000000401912 <setval_488>:
  401912:	c7 07 89 ca c3 53    	movl   $0x53c3ca89,(%rdi)
  401918:	c3                   	retq   

0000000000401919 <setval_267>:
  401919:	c7 07 99 ca 20 d2    	movl   $0xd220ca99,(%rdi)
  40191f:	c3                   	retq   

0000000000401920 <addval_418>:
  401920:	8d 87 c8 89 e0 90    	lea    -0x6f1f7638(%rdi),%eax
  401926:	c3                   	retq   

0000000000401927 <setval_408>:
  401927:	c7 07 48 09 e0 90    	movl   $0x90e00948,(%rdi)
  40192d:	c3                   	retq   

000000000040192e <setval_170>:
  40192e:	c7 07 cd 48 89 e0    	movl   $0xe08948cd,(%rdi)
  401934:	c3                   	retq   

0000000000401935 <getval_344>:
  401935:	b8 8d d6 90 c3       	mov    $0xc390d68d,%eax
  40193a:	c3                   	retq   

000000000040193b <setval_181>:
  40193b:	c7 07 48 89 e0 91    	movl   $0x91e08948,(%rdi)
  401941:	c3                   	retq   

0000000000401942 <getval_375>:
  401942:	b8 d0 99 c1 c3       	mov    $0xc3c199d0,%eax
  401947:	c3                   	retq   

0000000000401948 <getval_198>:
  401948:	b8 89 c1 c2 f3       	mov    $0xf3c2c189,%eax
  40194d:	c3                   	retq   

000000000040194e <setval_271>:
  40194e:	c7 07 ab 48 89 e0    	movl   $0xe08948ab,(%rdi)
  401954:	c3                   	retq   

0000000000401955 <addval_143>:
  401955:	8d 87 a9 c1 20 db    	lea    -0x24df3e57(%rdi),%eax
  40195b:	c3                   	retq   

000000000040195c <getval_262>:
  40195c:	b8 8b d6 20 d2       	mov    $0xd220d68b,%eax
  401961:	c3                   	retq   

0000000000401962 <setval_473>:
  401962:	c7 07 89 ca 92 90    	movl   $0x9092ca89,(%rdi)
  401968:	c3                   	retq   

0000000000401969 <setval_168>:
  401969:	c7 07 89 ca 00 c0    	movl   $0xc000ca89,(%rdi)
  40196f:	c3                   	retq   

0000000000401970 <setval_159>:
  401970:	c7 07 99 c1 08 c0    	movl   $0xc008c199,(%rdi)
  401976:	c3                   	retq   

0000000000401977 <setval_436>:
  401977:	c7 07 c9 d6 20 d2    	movl   $0xd220d6c9,(%rdi)
  40197d:	c3                   	retq   

000000000040197e <addval_133>:
  40197e:	8d 87 9b 89 ca c2    	lea    -0x3d357665(%rdi),%eax
  401984:	c3                   	retq   

0000000000401985 <addval_447>:
  401985:	8d 87 40 89 e0 c3    	lea    -0x3c1f76c0(%rdi),%eax
  40198b:	c3                   	retq   

000000000040198c <addval_370>:
  40198c:	8d 87 89 d6 c3 f9    	lea    -0x63c2977(%rdi),%eax
  401992:	c3                   	retq   

0000000000401993 <setval_202>:
  401993:	c7 07 c9 d6 38 c0    	movl   $0xc038d6c9,(%rdi)
  401999:	c3                   	retq   

000000000040199a <setval_497>:
  40199a:	c7 07 89 ca 90 c3    	movl   $0xc390ca89,(%rdi)
  4019a0:	c3                   	retq   

00000000004019a1 <getval_394>:
  4019a1:	b8 89 d6 28 db       	mov    $0xdb28d689,%eax
  4019a6:	c3                   	retq   

00000000004019a7 <getval_146>:
  4019a7:	b8 b0 89 ca c7       	mov    $0xc7ca89b0,%eax
  4019ac:	c3                   	retq   

00000000004019ad <getval_111>:
  4019ad:	b8 81 ca 84 db       	mov    $0xdb84ca81,%eax
  4019b2:	c3                   	retq   

00000000004019b3 <getval_396>:
  4019b3:	b8 89 d6 28 c9       	mov    $0xc928d689,%eax
  4019b8:	c3                   	retq   

00000000004019b9 <setval_124>:
  4019b9:	c7 07 f8 81 c1 c3    	movl   $0xc3c181f8,(%rdi)
  4019bf:	c3                   	retq   

00000000004019c0 <addval_171>:
  4019c0:	8d 87 89 c1 90 c3    	lea    -0x3c6f3e77(%rdi),%eax
  4019c6:	c3                   	retq   

00000000004019c7 <getval_374>:
  4019c7:	b8 d6 89 d6 c3       	mov    $0xc3d689d6,%eax
  4019cc:	c3                   	retq   

00000000004019cd <getval_288>:
  4019cd:	b8 48 89 e0 91       	mov    $0x91e08948,%eax
  4019d2:	c3                   	retq   

00000000004019d3 <getval_355>:
  4019d3:	b8 48 89 e0 c1       	mov    $0xc1e08948,%eax
  4019d8:	c3                   	retq   

00000000004019d9 <addval_182>:
  4019d9:	8d 87 09 c1 08 d2    	lea    -0x2df73ef7(%rdi),%eax
  4019df:	c3                   	retq   

00000000004019e0 <end_farm>:
  4019e0:	b8 01 00 00 00       	mov    $0x1,%eax
  4019e5:	c3                   	retq   
  4019e6:	66 2e 0f 1f 84 00 00 	nopw   %cs:0x0(%rax,%rax,1)
  4019ed:	00 00 00 

00000000004019f0 <save_char>:
  4019f0:	8b 05 2e 47 20 00    	mov    0x20472e(%rip),%eax        # 606124 <gets_cnt>
  4019f6:	3d ff 03 00 00       	cmp    $0x3ff,%eax
  4019fb:	7f 49                	jg     401a46 <save_char+0x56>
  4019fd:	8d 14 40             	lea    (%rax,%rax,2),%edx
  401a00:	89 f9                	mov    %edi,%ecx
  401a02:	c0 e9 04             	shr    $0x4,%cl
  401a05:	83 e1 0f             	and    $0xf,%ecx
  401a08:	0f b6 b1 e0 33 40 00 	movzbl 0x4033e0(%rcx),%esi
  401a0f:	48 63 ca             	movslq %edx,%rcx
  401a12:	40 88 b1 20 55 60 00 	mov    %sil,0x605520(%rcx)
  401a19:	8d 4a 01             	lea    0x1(%rdx),%ecx
  401a1c:	83 e7 0f             	and    $0xf,%edi
  401a1f:	0f b6 b7 e0 33 40 00 	movzbl 0x4033e0(%rdi),%esi
  401a26:	48 63 c9             	movslq %ecx,%rcx
  401a29:	40 88 b1 20 55 60 00 	mov    %sil,0x605520(%rcx)
  401a30:	83 c2 02             	add    $0x2,%edx
  401a33:	48 63 d2             	movslq %edx,%rdx
  401a36:	c6 82 20 55 60 00 20 	movb   $0x20,0x605520(%rdx)
  401a3d:	83 c0 01             	add    $0x1,%eax
  401a40:	89 05 de 46 20 00    	mov    %eax,0x2046de(%rip)        # 606124 <gets_cnt>
  401a46:	f3 c3                	repz retq 

0000000000401a48 <save_term>:
  401a48:	8b 05 d6 46 20 00    	mov    0x2046d6(%rip),%eax        # 606124 <gets_cnt>
  401a4e:	8d 04 40             	lea    (%rax,%rax,2),%eax
  401a51:	48 98                	cltq   
  401a53:	c6 80 20 55 60 00 00 	movb   $0x0,0x605520(%rax)
  401a5a:	c3                   	retq   

0000000000401a5b <check_fail>:
  401a5b:	48 83 ec 08          	sub    $0x8,%rsp
  401a5f:	0f be 35 c2 46 20 00 	movsbl 0x2046c2(%rip),%esi        # 606128 <target_prefix>
  401a66:	b9 20 55 60 00       	mov    $0x605520,%ecx
  401a6b:	8b 15 87 3a 20 00    	mov    0x203a87(%rip),%edx        # 6054f8 <check_level>
  401a71:	bf db 30 40 00       	mov    $0x4030db,%edi
  401a76:	b8 00 00 00 00       	mov    $0x0,%eax
  401a7b:	e8 00 f2 ff ff       	callq  400c80 <printf@plt>
  401a80:	bf 01 00 00 00       	mov    $0x1,%edi
  401a85:	e8 66 f3 ff ff       	callq  400df0 <exit@plt>

0000000000401a8a <Gets>:
  401a8a:	41 54                	push   %r12
  401a8c:	55                   	push   %rbp
  401a8d:	53                   	push   %rbx
  401a8e:	49 89 fc             	mov    %rdi,%r12
  401a91:	c7 05 89 46 20 00 00 	movl   $0x0,0x204689(%rip)        # 606124 <gets_cnt>
  401a98:	00 00 00 
  401a9b:	48 89 fb             	mov    %rdi,%rbx
  401a9e:	eb 11                	jmp    401ab1 <Gets+0x27>
  401aa0:	48 8d 6b 01          	lea    0x1(%rbx),%rbp
  401aa4:	88 03                	mov    %al,(%rbx)
  401aa6:	0f b6 f8             	movzbl %al,%edi
  401aa9:	e8 42 ff ff ff       	callq  4019f0 <save_char>
  401aae:	48 89 eb             	mov    %rbp,%rbx
  401ab1:	48 8b 3d 38 3a 20 00 	mov    0x203a38(%rip),%rdi        # 6054f0 <infile>
  401ab8:	e8 a3 f2 ff ff       	callq  400d60 <_IO_getc@plt>
  401abd:	83 f8 ff             	cmp    $0xffffffff,%eax
  401ac0:	74 05                	je     401ac7 <Gets+0x3d>
  401ac2:	83 f8 0a             	cmp    $0xa,%eax
  401ac5:	75 d9                	jne    401aa0 <Gets+0x16>
  401ac7:	c6 03 00             	movb   $0x0,(%rbx)
  401aca:	b8 00 00 00 00       	mov    $0x0,%eax
  401acf:	e8 74 ff ff ff       	callq  401a48 <save_term>
  401ad4:	4c 89 e0             	mov    %r12,%rax
  401ad7:	5b                   	pop    %rbx
  401ad8:	5d                   	pop    %rbp
  401ad9:	41 5c                	pop    %r12
  401adb:	c3                   	retq   

0000000000401adc <notify_server>:
  401adc:	83 3d 25 3a 20 00 00 	cmpl   $0x0,0x203a25(%rip)        # 605508 <is_checker>
  401ae3:	0f 85 8e 01 00 00    	jne    401c77 <notify_server+0x19b>
  401ae9:	53                   	push   %rbx
  401aea:	48 81 ec 10 40 00 00 	sub    $0x4010,%rsp
  401af1:	89 fb                	mov    %edi,%ebx
  401af3:	8b 05 2b 46 20 00    	mov    0x20462b(%rip),%eax        # 606124 <gets_cnt>
  401af9:	83 c0 64             	add    $0x64,%eax
  401afc:	3d 00 20 00 00       	cmp    $0x2000,%eax
  401b01:	7e 19                	jle    401b1c <notify_server+0x40>
  401b03:	bf 10 32 40 00       	mov    $0x403210,%edi
  401b08:	b8 00 00 00 00       	mov    $0x0,%eax
  401b0d:	e8 6e f1 ff ff       	callq  400c80 <printf@plt>
  401b12:	bf 01 00 00 00       	mov    $0x1,%edi
  401b17:	e8 d4 f2 ff ff       	callq  400df0 <exit@plt>
  401b1c:	44 0f be 0d 04 46 20 	movsbl 0x204604(%rip),%r9d        # 606128 <target_prefix>
  401b23:	00 
  401b24:	83 3d 7d 39 20 00 00 	cmpl   $0x0,0x20397d(%rip)        # 6054a8 <notify>
  401b2b:	74 09                	je     401b36 <notify_server+0x5a>
  401b2d:	44 8b 05 cc 39 20 00 	mov    0x2039cc(%rip),%r8d        # 605500 <authkey>
  401b34:	eb 06                	jmp    401b3c <notify_server+0x60>
  401b36:	41 b8 ff ff ff ff    	mov    $0xffffffff,%r8d
  401b3c:	85 db                	test   %ebx,%ebx
  401b3e:	74 07                	je     401b47 <notify_server+0x6b>
  401b40:	b9 f1 30 40 00       	mov    $0x4030f1,%ecx
  401b45:	eb 05                	jmp    401b4c <notify_server+0x70>
  401b47:	b9 f6 30 40 00       	mov    $0x4030f6,%ecx
  401b4c:	48 c7 44 24 08 20 55 	movq   $0x605520,0x8(%rsp)
  401b53:	60 00 
  401b55:	89 34 24             	mov    %esi,(%rsp)
  401b58:	8b 15 0a 36 20 00    	mov    0x20360a(%rip),%edx        # 605168 <target_id>
  401b5e:	be fb 30 40 00       	mov    $0x4030fb,%esi
  401b63:	48 8d bc 24 10 20 00 	lea    0x2010(%rsp),%rdi
  401b6a:	00 
  401b6b:	b8 00 00 00 00       	mov    $0x0,%eax
  401b70:	e8 6b f2 ff ff       	callq  400de0 <sprintf@plt>
  401b75:	83 3d 2c 39 20 00 00 	cmpl   $0x0,0x20392c(%rip)        # 6054a8 <notify>
  401b7c:	74 78                	je     401bf6 <notify_server+0x11a>
  401b7e:	85 db                	test   %ebx,%ebx
  401b80:	74 68                	je     401bea <notify_server+0x10e>
  401b82:	4c 8d 4c 24 10       	lea    0x10(%rsp),%r9
  401b87:	41 b8 00 00 00 00    	mov    $0x0,%r8d
  401b8d:	48 8d 8c 24 10 20 00 	lea    0x2010(%rsp),%rcx
  401b94:	00 
  401b95:	48 8b 15 d4 35 20 00 	mov    0x2035d4(%rip),%rdx        # 605170 <lab>
  401b9c:	48 8b 35 d5 35 20 00 	mov    0x2035d5(%rip),%rsi        # 605178 <course>
  401ba3:	48 8b 3d b6 35 20 00 	mov    0x2035b6(%rip),%rdi        # 605160 <user_id>
  401baa:	e8 94 0f 00 00       	callq  402b43 <driver_post>
  401baf:	85 c0                	test   %eax,%eax
  401bb1:	79 1e                	jns    401bd1 <notify_server+0xf5>
  401bb3:	48 8d 74 24 10       	lea    0x10(%rsp),%rsi
  401bb8:	bf 17 31 40 00       	mov    $0x403117,%edi
  401bbd:	b8 00 00 00 00       	mov    $0x0,%eax
  401bc2:	e8 b9 f0 ff ff       	callq  400c80 <printf@plt>
  401bc7:	bf 01 00 00 00       	mov    $0x1,%edi
  401bcc:	e8 1f f2 ff ff       	callq  400df0 <exit@plt>
  401bd1:	bf 40 32 40 00       	mov    $0x403240,%edi
  401bd6:	e8 75 f0 ff ff       	callq  400c50 <puts@plt>
  401bdb:	bf 23 31 40 00       	mov    $0x403123,%edi
  401be0:	e8 6b f0 ff ff       	callq  400c50 <puts@plt>
  401be5:	e9 85 00 00 00       	jmpq   401c6f <notify_server+0x193>
  401bea:	bf 2d 31 40 00       	mov    $0x40312d,%edi
  401bef:	e8 5c f0 ff ff       	callq  400c50 <puts@plt>
  401bf4:	eb 79                	jmp    401c6f <notify_server+0x193>
  401bf6:	85 db                	test   %ebx,%ebx
  401bf8:	74 08                	je     401c02 <notify_server+0x126>
  401bfa:	be f1 30 40 00       	mov    $0x4030f1,%esi
  401bff:	90                   	nop
  401c00:	eb 05                	jmp    401c07 <notify_server+0x12b>
  401c02:	be f6 30 40 00       	mov    $0x4030f6,%esi
  401c07:	bf 78 32 40 00       	mov    $0x403278,%edi
  401c0c:	b8 00 00 00 00       	mov    $0x0,%eax
  401c11:	e8 6a f0 ff ff       	callq  400c80 <printf@plt>
  401c16:	48 8b 35 43 35 20 00 	mov    0x203543(%rip),%rsi        # 605160 <user_id>
  401c1d:	bf 34 31 40 00       	mov    $0x403134,%edi
  401c22:	b8 00 00 00 00       	mov    $0x0,%eax
  401c27:	e8 54 f0 ff ff       	callq  400c80 <printf@plt>
  401c2c:	48 8b 35 45 35 20 00 	mov    0x203545(%rip),%rsi        # 605178 <course>
  401c33:	bf 41 31 40 00       	mov    $0x403141,%edi
  401c38:	b8 00 00 00 00       	mov    $0x0,%eax
  401c3d:	e8 3e f0 ff ff       	callq  400c80 <printf@plt>
  401c42:	48 8b 35 27 35 20 00 	mov    0x203527(%rip),%rsi        # 605170 <lab>
  401c49:	bf 4d 31 40 00       	mov    $0x40314d,%edi
  401c4e:	b8 00 00 00 00       	mov    $0x0,%eax
  401c53:	e8 28 f0 ff ff       	callq  400c80 <printf@plt>
  401c58:	48 8d b4 24 10 20 00 	lea    0x2010(%rsp),%rsi
  401c5f:	00 
  401c60:	bf 56 31 40 00       	mov    $0x403156,%edi
  401c65:	b8 00 00 00 00       	mov    $0x0,%eax
  401c6a:	e8 11 f0 ff ff       	callq  400c80 <printf@plt>
  401c6f:	48 81 c4 10 40 00 00 	add    $0x4010,%rsp
  401c76:	5b                   	pop    %rbx
  401c77:	f3 c3                	repz retq 

0000000000401c79 <validate>:
  401c79:	53                   	push   %rbx
  401c7a:	89 fb                	mov    %edi,%ebx
  401c7c:	83 3d 85 38 20 00 00 	cmpl   $0x0,0x203885(%rip)        # 605508 <is_checker>
  401c83:	74 60                	je     401ce5 <validate+0x6c>
  401c85:	39 3d 71 38 20 00    	cmp    %edi,0x203871(%rip)        # 6054fc <vlevel>
  401c8b:	74 14                	je     401ca1 <validate+0x28>
  401c8d:	bf 62 31 40 00       	mov    $0x403162,%edi
  401c92:	e8 b9 ef ff ff       	callq  400c50 <puts@plt>
  401c97:	b8 00 00 00 00       	mov    $0x0,%eax
  401c9c:	e8 ba fd ff ff       	callq  401a5b <check_fail>
  401ca1:	8b 35 51 38 20 00    	mov    0x203851(%rip),%esi        # 6054f8 <check_level>
  401ca7:	39 fe                	cmp    %edi,%esi
  401ca9:	74 1b                	je     401cc6 <validate+0x4d>
  401cab:	89 fa                	mov    %edi,%edx
  401cad:	bf a0 32 40 00       	mov    $0x4032a0,%edi
  401cb2:	b8 00 00 00 00       	mov    $0x0,%eax
  401cb7:	e8 c4 ef ff ff       	callq  400c80 <printf@plt>
  401cbc:	b8 00 00 00 00       	mov    $0x0,%eax
  401cc1:	e8 95 fd ff ff       	callq  401a5b <check_fail>
  401cc6:	0f be 35 5b 44 20 00 	movsbl 0x20445b(%rip),%esi        # 606128 <target_prefix>
  401ccd:	b9 20 55 60 00       	mov    $0x605520,%ecx
  401cd2:	89 fa                	mov    %edi,%edx
  401cd4:	bf 80 31 40 00       	mov    $0x403180,%edi
  401cd9:	b8 00 00 00 00       	mov    $0x0,%eax
  401cde:	e8 9d ef ff ff       	callq  400c80 <printf@plt>
  401ce3:	eb 44                	jmp    401d29 <validate+0xb0>
  401ce5:	39 3d 11 38 20 00    	cmp    %edi,0x203811(%rip)        # 6054fc <vlevel>
  401ceb:	74 18                	je     401d05 <validate+0x8c>
  401ced:	bf 62 31 40 00       	mov    $0x403162,%edi
  401cf2:	e8 59 ef ff ff       	callq  400c50 <puts@plt>
  401cf7:	89 de                	mov    %ebx,%esi
  401cf9:	bf 00 00 00 00       	mov    $0x0,%edi
  401cfe:	e8 d9 fd ff ff       	callq  401adc <notify_server>
  401d03:	eb 24                	jmp    401d29 <validate+0xb0>
  401d05:	0f be 15 1c 44 20 00 	movsbl 0x20441c(%rip),%edx        # 606128 <target_prefix>
  401d0c:	89 fe                	mov    %edi,%esi
  401d0e:	bf c8 32 40 00       	mov    $0x4032c8,%edi
  401d13:	b8 00 00 00 00       	mov    $0x0,%eax
  401d18:	e8 63 ef ff ff       	callq  400c80 <printf@plt>
  401d1d:	89 de                	mov    %ebx,%esi
  401d1f:	bf 01 00 00 00       	mov    $0x1,%edi
  401d24:	e8 b3 fd ff ff       	callq  401adc <notify_server>
  401d29:	5b                   	pop    %rbx
  401d2a:	c3                   	retq   

0000000000401d2b <fail>:
  401d2b:	48 83 ec 08          	sub    $0x8,%rsp
  401d2f:	83 3d d2 37 20 00 00 	cmpl   $0x0,0x2037d2(%rip)        # 605508 <is_checker>
  401d36:	74 0a                	je     401d42 <fail+0x17>
  401d38:	b8 00 00 00 00       	mov    $0x0,%eax
  401d3d:	e8 19 fd ff ff       	callq  401a5b <check_fail>
  401d42:	89 fe                	mov    %edi,%esi
  401d44:	bf 00 00 00 00       	mov    $0x0,%edi
  401d49:	e8 8e fd ff ff       	callq  401adc <notify_server>
  401d4e:	48 83 c4 08          	add    $0x8,%rsp
  401d52:	c3                   	retq   

0000000000401d53 <bushandler>:
  401d53:	48 83 ec 08          	sub    $0x8,%rsp
  401d57:	83 3d aa 37 20 00 00 	cmpl   $0x0,0x2037aa(%rip)        # 605508 <is_checker>
  401d5e:	74 14                	je     401d74 <bushandler+0x21>
  401d60:	bf 95 31 40 00       	mov    $0x403195,%edi
  401d65:	e8 e6 ee ff ff       	callq  400c50 <puts@plt>
  401d6a:	b8 00 00 00 00       	mov    $0x0,%eax
  401d6f:	e8 e7 fc ff ff       	callq  401a5b <check_fail>
  401d74:	bf 00 33 40 00       	mov    $0x403300,%edi
  401d79:	e8 d2 ee ff ff       	callq  400c50 <puts@plt>
  401d7e:	bf 9f 31 40 00       	mov    $0x40319f,%edi
  401d83:	e8 c8 ee ff ff       	callq  400c50 <puts@plt>
  401d88:	be 00 00 00 00       	mov    $0x0,%esi
  401d8d:	bf 00 00 00 00       	mov    $0x0,%edi
  401d92:	e8 45 fd ff ff       	callq  401adc <notify_server>
  401d97:	bf 01 00 00 00       	mov    $0x1,%edi
  401d9c:	e8 4f f0 ff ff       	callq  400df0 <exit@plt>

0000000000401da1 <seghandler>:
  401da1:	48 83 ec 08          	sub    $0x8,%rsp
  401da5:	83 3d 5c 37 20 00 00 	cmpl   $0x0,0x20375c(%rip)        # 605508 <is_checker>
  401dac:	74 14                	je     401dc2 <seghandler+0x21>
  401dae:	bf b5 31 40 00       	mov    $0x4031b5,%edi
  401db3:	e8 98 ee ff ff       	callq  400c50 <puts@plt>
  401db8:	b8 00 00 00 00       	mov    $0x0,%eax
  401dbd:	e8 99 fc ff ff       	callq  401a5b <check_fail>
  401dc2:	bf 20 33 40 00       	mov    $0x403320,%edi
  401dc7:	e8 84 ee ff ff       	callq  400c50 <puts@plt>
  401dcc:	bf 9f 31 40 00       	mov    $0x40319f,%edi
  401dd1:	e8 7a ee ff ff       	callq  400c50 <puts@plt>
  401dd6:	be 00 00 00 00       	mov    $0x0,%esi
  401ddb:	bf 00 00 00 00       	mov    $0x0,%edi
  401de0:	e8 f7 fc ff ff       	callq  401adc <notify_server>
  401de5:	bf 01 00 00 00       	mov    $0x1,%edi
  401dea:	e8 01 f0 ff ff       	callq  400df0 <exit@plt>

0000000000401def <illegalhandler>:
  401def:	48 83 ec 08          	sub    $0x8,%rsp
  401df3:	83 3d 0e 37 20 00 00 	cmpl   $0x0,0x20370e(%rip)        # 605508 <is_checker>
  401dfa:	74 14                	je     401e10 <illegalhandler+0x21>
  401dfc:	bf c8 31 40 00       	mov    $0x4031c8,%edi
  401e01:	e8 4a ee ff ff       	callq  400c50 <puts@plt>
  401e06:	b8 00 00 00 00       	mov    $0x0,%eax
  401e0b:	e8 4b fc ff ff       	callq  401a5b <check_fail>
  401e10:	bf 48 33 40 00       	mov    $0x403348,%edi
  401e15:	e8 36 ee ff ff       	callq  400c50 <puts@plt>
  401e1a:	bf 9f 31 40 00       	mov    $0x40319f,%edi
  401e1f:	e8 2c ee ff ff       	callq  400c50 <puts@plt>
  401e24:	be 00 00 00 00       	mov    $0x0,%esi
  401e29:	bf 00 00 00 00       	mov    $0x0,%edi
  401e2e:	e8 a9 fc ff ff       	callq  401adc <notify_server>
  401e33:	bf 01 00 00 00       	mov    $0x1,%edi
  401e38:	e8 b3 ef ff ff       	callq  400df0 <exit@plt>

0000000000401e3d <sigalrmhandler>:
  401e3d:	48 83 ec 08          	sub    $0x8,%rsp
  401e41:	83 3d c0 36 20 00 00 	cmpl   $0x0,0x2036c0(%rip)        # 605508 <is_checker>
  401e48:	74 14                	je     401e5e <sigalrmhandler+0x21>
  401e4a:	bf dc 31 40 00       	mov    $0x4031dc,%edi
  401e4f:	e8 fc ed ff ff       	callq  400c50 <puts@plt>
  401e54:	b8 00 00 00 00       	mov    $0x0,%eax
  401e59:	e8 fd fb ff ff       	callq  401a5b <check_fail>
  401e5e:	be 05 00 00 00       	mov    $0x5,%esi
  401e63:	bf 78 33 40 00       	mov    $0x403378,%edi
  401e68:	b8 00 00 00 00       	mov    $0x0,%eax
  401e6d:	e8 0e ee ff ff       	callq  400c80 <printf@plt>
  401e72:	be 00 00 00 00       	mov    $0x0,%esi
  401e77:	bf 00 00 00 00       	mov    $0x0,%edi
  401e7c:	e8 5b fc ff ff       	callq  401adc <notify_server>
  401e81:	bf 01 00 00 00       	mov    $0x1,%edi
  401e86:	e8 65 ef ff ff       	callq  400df0 <exit@plt>

0000000000401e8b <launch>:
  401e8b:	55                   	push   %rbp
  401e8c:	48 89 e5             	mov    %rsp,%rbp
  401e8f:	48 89 fa             	mov    %rdi,%rdx
  401e92:	48 8d 47 1e          	lea    0x1e(%rdi),%rax
  401e96:	48 83 e0 f0          	and    $0xfffffffffffffff0,%rax
  401e9a:	48 29 c4             	sub    %rax,%rsp
  401e9d:	48 8d 7c 24 0f       	lea    0xf(%rsp),%rdi
  401ea2:	48 83 e7 f0          	and    $0xfffffffffffffff0,%rdi
  401ea6:	be f4 00 00 00       	mov    $0xf4,%esi
  401eab:	e8 e0 ed ff ff       	callq  400c90 <memset@plt>
  401eb0:	48 8b 05 09 36 20 00 	mov    0x203609(%rip),%rax        # 6054c0 <stdin@@GLIBC_2.2.5>
  401eb7:	48 39 05 32 36 20 00 	cmp    %rax,0x203632(%rip)        # 6054f0 <infile>
  401ebe:	75 0f                	jne    401ecf <launch+0x44>
  401ec0:	bf e4 31 40 00       	mov    $0x4031e4,%edi
  401ec5:	b8 00 00 00 00       	mov    $0x0,%eax
  401eca:	e8 b1 ed ff ff       	callq  400c80 <printf@plt>
  401ecf:	c7 05 23 36 20 00 00 	movl   $0x0,0x203623(%rip)        # 6054fc <vlevel>
  401ed6:	00 00 00 
  401ed9:	b8 00 00 00 00       	mov    $0x0,%eax
  401ede:	e8 bd f9 ff ff       	callq  4018a0 <test>
  401ee3:	83 3d 1e 36 20 00 00 	cmpl   $0x0,0x20361e(%rip)        # 605508 <is_checker>
  401eea:	74 14                	je     401f00 <launch+0x75>
  401eec:	bf f1 31 40 00       	mov    $0x4031f1,%edi
  401ef1:	e8 5a ed ff ff       	callq  400c50 <puts@plt>
  401ef6:	b8 00 00 00 00       	mov    $0x0,%eax
  401efb:	e8 5b fb ff ff       	callq  401a5b <check_fail>
  401f00:	bf fc 31 40 00       	mov    $0x4031fc,%edi
  401f05:	e8 46 ed ff ff       	callq  400c50 <puts@plt>
  401f0a:	c9                   	leaveq 
  401f0b:	c3                   	retq   

0000000000401f0c <stable_launch>:
  401f0c:	53                   	push   %rbx
  401f0d:	48 89 3d d4 35 20 00 	mov    %rdi,0x2035d4(%rip)        # 6054e8 <global_offset>
  401f14:	41 b9 00 00 00 00    	mov    $0x0,%r9d
  401f1a:	41 b8 00 00 00 00    	mov    $0x0,%r8d
  401f20:	b9 32 01 00 00       	mov    $0x132,%ecx
  401f25:	ba 07 00 00 00       	mov    $0x7,%edx
  401f2a:	be 00 00 10 00       	mov    $0x100000,%esi
  401f2f:	bf 00 60 58 55       	mov    $0x55586000,%edi
  401f34:	e8 37 ed ff ff       	callq  400c70 <mmap@plt>
  401f39:	48 89 c3             	mov    %rax,%rbx
  401f3c:	48 3d 00 60 58 55    	cmp    $0x55586000,%rax
  401f42:	74 32                	je     401f76 <stable_launch+0x6a>
  401f44:	be 00 00 10 00       	mov    $0x100000,%esi
  401f49:	48 89 c7             	mov    %rax,%rdi
  401f4c:	e8 2f ee ff ff       	callq  400d80 <munmap@plt>
  401f51:	ba 00 60 58 55       	mov    $0x55586000,%edx
  401f56:	be b0 33 40 00       	mov    $0x4033b0,%esi
  401f5b:	48 8b 3d 6e 35 20 00 	mov    0x20356e(%rip),%rdi        # 6054d0 <stderr@@GLIBC_2.2.5>
  401f62:	b8 00 00 00 00       	mov    $0x0,%eax
  401f67:	e8 94 ed ff ff       	callq  400d00 <fprintf@plt>
  401f6c:	bf 01 00 00 00       	mov    $0x1,%edi
  401f71:	e8 7a ee ff ff       	callq  400df0 <exit@plt>
  401f76:	48 8d 90 f8 ff 0f 00 	lea    0xffff8(%rax),%rdx
  401f7d:	48 89 15 ac 41 20 00 	mov    %rdx,0x2041ac(%rip)        # 606130 <stack_top>
  401f84:	48 89 e0             	mov    %rsp,%rax
  401f87:	48 89 d4             	mov    %rdx,%rsp
  401f8a:	48 89 c2             	mov    %rax,%rdx
  401f8d:	48 89 15 4c 35 20 00 	mov    %rdx,0x20354c(%rip)        # 6054e0 <global_save_stack>
  401f94:	48 8b 3d 4d 35 20 00 	mov    0x20354d(%rip),%rdi        # 6054e8 <global_offset>
  401f9b:	e8 eb fe ff ff       	callq  401e8b <launch>
  401fa0:	48 8b 05 39 35 20 00 	mov    0x203539(%rip),%rax        # 6054e0 <global_save_stack>
  401fa7:	48 89 c4             	mov    %rax,%rsp
  401faa:	be 00 00 10 00       	mov    $0x100000,%esi
  401faf:	48 89 df             	mov    %rbx,%rdi
  401fb2:	e8 c9 ed ff ff       	callq  400d80 <munmap@plt>
  401fb7:	5b                   	pop    %rbx
  401fb8:	c3                   	retq   
  401fb9:	0f 1f 80 00 00 00 00 	nopl   0x0(%rax)

0000000000401fc0 <rio_readinitb>:
  401fc0:	89 37                	mov    %esi,(%rdi)
  401fc2:	c7 47 04 00 00 00 00 	movl   $0x0,0x4(%rdi)
  401fc9:	48 8d 47 10          	lea    0x10(%rdi),%rax
  401fcd:	48 89 47 08          	mov    %rax,0x8(%rdi)
  401fd1:	c3                   	retq   

0000000000401fd2 <sigalrm_handler>:
  401fd2:	48 83 ec 08          	sub    $0x8,%rsp
  401fd6:	ba 00 00 00 00       	mov    $0x0,%edx
  401fdb:	be f0 33 40 00       	mov    $0x4033f0,%esi
  401fe0:	48 8b 3d e9 34 20 00 	mov    0x2034e9(%rip),%rdi        # 6054d0 <stderr@@GLIBC_2.2.5>
  401fe7:	b8 00 00 00 00       	mov    $0x0,%eax
  401fec:	e8 0f ed ff ff       	callq  400d00 <fprintf@plt>
  401ff1:	bf 01 00 00 00       	mov    $0x1,%edi
  401ff6:	e8 f5 ed ff ff       	callq  400df0 <exit@plt>

0000000000401ffb <urlencode>:
  401ffb:	41 54                	push   %r12
  401ffd:	55                   	push   %rbp
  401ffe:	53                   	push   %rbx
  401fff:	48 83 ec 10          	sub    $0x10,%rsp
  402003:	48 89 fb             	mov    %rdi,%rbx
  402006:	48 89 f5             	mov    %rsi,%rbp
  402009:	b8 00 00 00 00       	mov    $0x0,%eax
  40200e:	48 c7 c1 ff ff ff ff 	mov    $0xffffffffffffffff,%rcx
  402015:	f2 ae                	repnz scas %es:(%rdi),%al
  402017:	48 f7 d1             	not    %rcx
  40201a:	8d 41 ff             	lea    -0x1(%rcx),%eax
  40201d:	e9 93 00 00 00       	jmpq   4020b5 <urlencode+0xba>
  402022:	0f b6 13             	movzbl (%rbx),%edx
  402025:	80 fa 2a             	cmp    $0x2a,%dl
  402028:	0f 94 c1             	sete   %cl
  40202b:	80 fa 2d             	cmp    $0x2d,%dl
  40202e:	0f 94 c0             	sete   %al
  402031:	08 c1                	or     %al,%cl
  402033:	75 1f                	jne    402054 <urlencode+0x59>
  402035:	80 fa 2e             	cmp    $0x2e,%dl
  402038:	74 1a                	je     402054 <urlencode+0x59>
  40203a:	80 fa 5f             	cmp    $0x5f,%dl
  40203d:	74 15                	je     402054 <urlencode+0x59>
  40203f:	8d 42 d0             	lea    -0x30(%rdx),%eax
  402042:	3c 09                	cmp    $0x9,%al
  402044:	76 0e                	jbe    402054 <urlencode+0x59>
  402046:	8d 42 bf             	lea    -0x41(%rdx),%eax
  402049:	3c 19                	cmp    $0x19,%al
  40204b:	76 07                	jbe    402054 <urlencode+0x59>
  40204d:	8d 42 9f             	lea    -0x61(%rdx),%eax
  402050:	3c 19                	cmp    $0x19,%al
  402052:	77 09                	ja     40205d <urlencode+0x62>
  402054:	88 55 00             	mov    %dl,0x0(%rbp)
  402057:	48 8d 6d 01          	lea    0x1(%rbp),%rbp
  40205b:	eb 51                	jmp    4020ae <urlencode+0xb3>
  40205d:	80 fa 20             	cmp    $0x20,%dl
  402060:	75 0a                	jne    40206c <urlencode+0x71>
  402062:	c6 45 00 2b          	movb   $0x2b,0x0(%rbp)
  402066:	48 8d 6d 01          	lea    0x1(%rbp),%rbp
  40206a:	eb 42                	jmp    4020ae <urlencode+0xb3>
  40206c:	8d 42 e0             	lea    -0x20(%rdx),%eax
  40206f:	3c 5f                	cmp    $0x5f,%al
  402071:	0f 96 c1             	setbe  %cl
  402074:	80 fa 09             	cmp    $0x9,%dl
  402077:	0f 94 c0             	sete   %al
  40207a:	08 c1                	or     %al,%cl
  40207c:	74 45                	je     4020c3 <urlencode+0xc8>
  40207e:	0f b6 d2             	movzbl %dl,%edx
  402081:	be 88 34 40 00       	mov    $0x403488,%esi
  402086:	48 89 e7             	mov    %rsp,%rdi
  402089:	b8 00 00 00 00       	mov    $0x0,%eax
  40208e:	e8 4d ed ff ff       	callq  400de0 <sprintf@plt>
  402093:	0f b6 04 24          	movzbl (%rsp),%eax
  402097:	88 45 00             	mov    %al,0x0(%rbp)
  40209a:	0f b6 44 24 01       	movzbl 0x1(%rsp),%eax
  40209f:	88 45 01             	mov    %al,0x1(%rbp)
  4020a2:	0f b6 44 24 02       	movzbl 0x2(%rsp),%eax
  4020a7:	88 45 02             	mov    %al,0x2(%rbp)
  4020aa:	48 8d 6d 03          	lea    0x3(%rbp),%rbp
  4020ae:	48 83 c3 01          	add    $0x1,%rbx
  4020b2:	44 89 e0             	mov    %r12d,%eax
  4020b5:	44 8d 60 ff          	lea    -0x1(%rax),%r12d
  4020b9:	85 c0                	test   %eax,%eax
  4020bb:	0f 85 61 ff ff ff    	jne    402022 <urlencode+0x27>
  4020c1:	eb 05                	jmp    4020c8 <urlencode+0xcd>
  4020c3:	b8 ff ff ff ff       	mov    $0xffffffff,%eax
  4020c8:	48 83 c4 10          	add    $0x10,%rsp
  4020cc:	5b                   	pop    %rbx
  4020cd:	5d                   	pop    %rbp
  4020ce:	41 5c                	pop    %r12
  4020d0:	c3                   	retq   

00000000004020d1 <rio_writen>:
  4020d1:	41 55                	push   %r13
  4020d3:	41 54                	push   %r12
  4020d5:	55                   	push   %rbp
  4020d6:	53                   	push   %rbx
  4020d7:	48 83 ec 08          	sub    $0x8,%rsp
  4020db:	41 89 fc             	mov    %edi,%r12d
  4020de:	48 89 f5             	mov    %rsi,%rbp
  4020e1:	49 89 d5             	mov    %rdx,%r13
  4020e4:	48 89 d3             	mov    %rdx,%rbx
  4020e7:	eb 28                	jmp    402111 <rio_writen+0x40>
  4020e9:	48 89 da             	mov    %rbx,%rdx
  4020ec:	48 89 ee             	mov    %rbp,%rsi
  4020ef:	44 89 e7             	mov    %r12d,%edi
  4020f2:	e8 69 eb ff ff       	callq  400c60 <write@plt>
  4020f7:	48 85 c0             	test   %rax,%rax
  4020fa:	7f 0f                	jg     40210b <rio_writen+0x3a>
  4020fc:	e8 0f eb ff ff       	callq  400c10 <__errno_location@plt>
  402101:	83 38 04             	cmpl   $0x4,(%rax)
  402104:	75 15                	jne    40211b <rio_writen+0x4a>
  402106:	b8 00 00 00 00       	mov    $0x0,%eax
  40210b:	48 29 c3             	sub    %rax,%rbx
  40210e:	48 01 c5             	add    %rax,%rbp
  402111:	48 85 db             	test   %rbx,%rbx
  402114:	75 d3                	jne    4020e9 <rio_writen+0x18>
  402116:	4c 89 e8             	mov    %r13,%rax
  402119:	eb 07                	jmp    402122 <rio_writen+0x51>
  40211b:	48 c7 c0 ff ff ff ff 	mov    $0xffffffffffffffff,%rax
  402122:	48 83 c4 08          	add    $0x8,%rsp
  402126:	5b                   	pop    %rbx
  402127:	5d                   	pop    %rbp
  402128:	41 5c                	pop    %r12
  40212a:	41 5d                	pop    %r13
  40212c:	c3                   	retq   

000000000040212d <rio_read>:
  40212d:	41 56                	push   %r14
  40212f:	41 55                	push   %r13
  402131:	41 54                	push   %r12
  402133:	55                   	push   %rbp
  402134:	53                   	push   %rbx
  402135:	48 89 fb             	mov    %rdi,%rbx
  402138:	49 89 f6             	mov    %rsi,%r14
  40213b:	49 89 d5             	mov    %rdx,%r13
  40213e:	4c 8d 67 10          	lea    0x10(%rdi),%r12
  402142:	eb 2a                	jmp    40216e <rio_read+0x41>
  402144:	ba 00 20 00 00       	mov    $0x2000,%edx
  402149:	4c 89 e6             	mov    %r12,%rsi
  40214c:	8b 3b                	mov    (%rbx),%edi
  40214e:	e8 6d eb ff ff       	callq  400cc0 <read@plt>
  402153:	89 43 04             	mov    %eax,0x4(%rbx)
  402156:	85 c0                	test   %eax,%eax
  402158:	79 0c                	jns    402166 <rio_read+0x39>
  40215a:	e8 b1 ea ff ff       	callq  400c10 <__errno_location@plt>
  40215f:	83 38 04             	cmpl   $0x4,(%rax)
  402162:	74 0a                	je     40216e <rio_read+0x41>
  402164:	eb 37                	jmp    40219d <rio_read+0x70>
  402166:	85 c0                	test   %eax,%eax
  402168:	74 3c                	je     4021a6 <rio_read+0x79>
  40216a:	4c 89 63 08          	mov    %r12,0x8(%rbx)
  40216e:	8b 6b 04             	mov    0x4(%rbx),%ebp
  402171:	85 ed                	test   %ebp,%ebp
  402173:	7e cf                	jle    402144 <rio_read+0x17>
  402175:	89 e8                	mov    %ebp,%eax
  402177:	4c 39 e8             	cmp    %r13,%rax
  40217a:	72 03                	jb     40217f <rio_read+0x52>
  40217c:	44 89 ed             	mov    %r13d,%ebp
  40217f:	4c 63 e5             	movslq %ebp,%r12
  402182:	48 8b 73 08          	mov    0x8(%rbx),%rsi
  402186:	4c 89 e2             	mov    %r12,%rdx
  402189:	4c 89 f7             	mov    %r14,%rdi
  40218c:	e8 9f eb ff ff       	callq  400d30 <memcpy@plt>
  402191:	4c 01 63 08          	add    %r12,0x8(%rbx)
  402195:	29 6b 04             	sub    %ebp,0x4(%rbx)
  402198:	4c 89 e0             	mov    %r12,%rax
  40219b:	eb 0e                	jmp    4021ab <rio_read+0x7e>
  40219d:	48 c7 c0 ff ff ff ff 	mov    $0xffffffffffffffff,%rax
  4021a4:	eb 05                	jmp    4021ab <rio_read+0x7e>
  4021a6:	b8 00 00 00 00       	mov    $0x0,%eax
  4021ab:	5b                   	pop    %rbx
  4021ac:	5d                   	pop    %rbp
  4021ad:	41 5c                	pop    %r12
  4021af:	41 5d                	pop    %r13
  4021b1:	41 5e                	pop    %r14
  4021b3:	c3                   	retq   

00000000004021b4 <rio_readlineb>:
  4021b4:	41 55                	push   %r13
  4021b6:	41 54                	push   %r12
  4021b8:	55                   	push   %rbp
  4021b9:	53                   	push   %rbx
  4021ba:	48 83 ec 18          	sub    $0x18,%rsp
  4021be:	49 89 fd             	mov    %rdi,%r13
  4021c1:	48 89 f5             	mov    %rsi,%rbp
  4021c4:	49 89 d4             	mov    %rdx,%r12
  4021c7:	bb 01 00 00 00       	mov    $0x1,%ebx
  4021cc:	eb 3d                	jmp    40220b <rio_readlineb+0x57>
  4021ce:	ba 01 00 00 00       	mov    $0x1,%edx
  4021d3:	48 8d 74 24 0f       	lea    0xf(%rsp),%rsi
  4021d8:	4c 89 ef             	mov    %r13,%rdi
  4021db:	e8 4d ff ff ff       	callq  40212d <rio_read>
  4021e0:	83 f8 01             	cmp    $0x1,%eax
  4021e3:	75 12                	jne    4021f7 <rio_readlineb+0x43>
  4021e5:	48 8d 55 01          	lea    0x1(%rbp),%rdx
  4021e9:	0f b6 44 24 0f       	movzbl 0xf(%rsp),%eax
  4021ee:	88 45 00             	mov    %al,0x0(%rbp)
  4021f1:	3c 0a                	cmp    $0xa,%al
  4021f3:	75 0f                	jne    402204 <rio_readlineb+0x50>
  4021f5:	eb 1b                	jmp    402212 <rio_readlineb+0x5e>
  4021f7:	85 c0                	test   %eax,%eax
  4021f9:	75 23                	jne    40221e <rio_readlineb+0x6a>
  4021fb:	48 83 fb 01          	cmp    $0x1,%rbx
  4021ff:	90                   	nop
  402200:	75 13                	jne    402215 <rio_readlineb+0x61>
  402202:	eb 23                	jmp    402227 <rio_readlineb+0x73>
  402204:	48 83 c3 01          	add    $0x1,%rbx
  402208:	48 89 d5             	mov    %rdx,%rbp
  40220b:	4c 39 e3             	cmp    %r12,%rbx
  40220e:	72 be                	jb     4021ce <rio_readlineb+0x1a>
  402210:	eb 03                	jmp    402215 <rio_readlineb+0x61>
  402212:	48 89 d5             	mov    %rdx,%rbp
  402215:	c6 45 00 00          	movb   $0x0,0x0(%rbp)
  402219:	48 89 d8             	mov    %rbx,%rax
  40221c:	eb 0e                	jmp    40222c <rio_readlineb+0x78>
  40221e:	48 c7 c0 ff ff ff ff 	mov    $0xffffffffffffffff,%rax
  402225:	eb 05                	jmp    40222c <rio_readlineb+0x78>
  402227:	b8 00 00 00 00       	mov    $0x0,%eax
  40222c:	48 83 c4 18          	add    $0x18,%rsp
  402230:	5b                   	pop    %rbx
  402231:	5d                   	pop    %rbp
  402232:	41 5c                	pop    %r12
  402234:	41 5d                	pop    %r13
  402236:	c3                   	retq   

0000000000402237 <submitr>:
  402237:	41 57                	push   %r15
  402239:	41 56                	push   %r14
  40223b:	41 55                	push   %r13
  40223d:	41 54                	push   %r12
  40223f:	55                   	push   %rbp
  402240:	53                   	push   %rbx
  402241:	48 81 ec 48 a0 00 00 	sub    $0xa048,%rsp
  402248:	49 89 fc             	mov    %rdi,%r12
  40224b:	89 74 24 04          	mov    %esi,0x4(%rsp)
  40224f:	49 89 d7             	mov    %rdx,%r15
  402252:	49 89 ce             	mov    %rcx,%r14
  402255:	4c 89 44 24 08       	mov    %r8,0x8(%rsp)
  40225a:	4d 89 cd             	mov    %r9,%r13
  40225d:	48 8b 9c 24 80 a0 00 	mov    0xa080(%rsp),%rbx
  402264:	00 
  402265:	c7 84 24 1c 20 00 00 	movl   $0x0,0x201c(%rsp)
  40226c:	00 00 00 00 
  402270:	ba 00 00 00 00       	mov    $0x0,%edx
  402275:	be 01 00 00 00       	mov    $0x1,%esi
  40227a:	bf 02 00 00 00       	mov    $0x2,%edi
  40227f:	e8 8c eb ff ff       	callq  400e10 <socket@plt>
  402284:	89 c5                	mov    %eax,%ebp
  402286:	85 c0                	test   %eax,%eax
  402288:	79 4e                	jns    4022d8 <submitr+0xa1>
  40228a:	48 b8 45 72 72 6f 72 	movabs $0x43203a726f727245,%rax
  402291:	3a 20 43 
  402294:	48 89 03             	mov    %rax,(%rbx)
  402297:	48 b8 6c 69 65 6e 74 	movabs $0x6e7520746e65696c,%rax
  40229e:	20 75 6e 
  4022a1:	48 89 43 08          	mov    %rax,0x8(%rbx)
  4022a5:	48 b8 61 62 6c 65 20 	movabs $0x206f7420656c6261,%rax
  4022ac:	74 6f 20 
  4022af:	48 89 43 10          	mov    %rax,0x10(%rbx)
  4022b3:	48 b8 63 72 65 61 74 	movabs $0x7320657461657263,%rax
  4022ba:	65 20 73 
  4022bd:	48 89 43 18          	mov    %rax,0x18(%rbx)
  4022c1:	c7 43 20 6f 63 6b 65 	movl   $0x656b636f,0x20(%rbx)
  4022c8:	66 c7 43 24 74 00    	movw   $0x74,0x24(%rbx)
  4022ce:	b8 ff ff ff ff       	mov    $0xffffffff,%eax
  4022d3:	e9 68 06 00 00       	jmpq   402940 <submitr+0x709>
  4022d8:	4c 89 e7             	mov    %r12,%rdi
  4022db:	e8 10 ea ff ff       	callq  400cf0 <gethostbyname@plt>
  4022e0:	48 85 c0             	test   %rax,%rax
  4022e3:	75 67                	jne    40234c <submitr+0x115>
  4022e5:	48 b8 45 72 72 6f 72 	movabs $0x44203a726f727245,%rax
  4022ec:	3a 20 44 
  4022ef:	48 89 03             	mov    %rax,(%rbx)
  4022f2:	48 b8 4e 53 20 69 73 	movabs $0x6e7520736920534e,%rax
  4022f9:	20 75 6e 
  4022fc:	48 89 43 08          	mov    %rax,0x8(%rbx)
  402300:	48 b8 61 62 6c 65 20 	movabs $0x206f7420656c6261,%rax
  402307:	74 6f 20 
  40230a:	48 89 43 10          	mov    %rax,0x10(%rbx)
  40230e:	48 b8 72 65 73 6f 6c 	movabs $0x2065766c6f736572,%rax
  402315:	76 65 20 
  402318:	48 89 43 18          	mov    %rax,0x18(%rbx)
  40231c:	48 b8 73 65 72 76 65 	movabs $0x6120726576726573,%rax
  402323:	72 20 61 
  402326:	48 89 43 20          	mov    %rax,0x20(%rbx)
  40232a:	c7 43 28 64 64 72 65 	movl   $0x65726464,0x28(%rbx)
  402331:	66 c7 43 2c 73 73    	movw   $0x7373,0x2c(%rbx)
  402337:	c6 43 2e 00          	movb   $0x0,0x2e(%rbx)
  40233b:	89 ef                	mov    %ebp,%edi
  40233d:	e8 6e e9 ff ff       	callq  400cb0 <close@plt>
  402342:	b8 ff ff ff ff       	mov    $0xffffffff,%eax
  402347:	e9 f4 05 00 00       	jmpq   402940 <submitr+0x709>
  40234c:	48 c7 84 24 30 a0 00 	movq   $0x0,0xa030(%rsp)
  402353:	00 00 00 00 00 
  402358:	48 c7 84 24 38 a0 00 	movq   $0x0,0xa038(%rsp)
  40235f:	00 00 00 00 00 
  402364:	66 c7 84 24 30 a0 00 	movw   $0x2,0xa030(%rsp)
  40236b:	00 02 00 
  40236e:	48 8b 48 18          	mov    0x18(%rax),%rcx
  402372:	48 63 50 14          	movslq 0x14(%rax),%rdx
  402376:	48 8d b4 24 34 a0 00 	lea    0xa034(%rsp),%rsi
  40237d:	00 
  40237e:	48 8b 39             	mov    (%rcx),%rdi
  402381:	e8 0a ea ff ff       	callq  400d90 <bcopy@plt>
  402386:	0f b7 44 24 04       	movzwl 0x4(%rsp),%eax
  40238b:	66 c1 c8 08          	ror    $0x8,%ax
  40238f:	66 89 84 24 32 a0 00 	mov    %ax,0xa032(%rsp)
  402396:	00 
  402397:	ba 10 00 00 00       	mov    $0x10,%edx
  40239c:	48 8d b4 24 30 a0 00 	lea    0xa030(%rsp),%rsi
  4023a3:	00 
  4023a4:	89 ef                	mov    %ebp,%edi
  4023a6:	e8 55 ea ff ff       	callq  400e00 <connect@plt>
  4023ab:	85 c0                	test   %eax,%eax
  4023ad:	79 59                	jns    402408 <submitr+0x1d1>
  4023af:	48 b8 45 72 72 6f 72 	movabs $0x55203a726f727245,%rax
  4023b6:	3a 20 55 
  4023b9:	48 89 03             	mov    %rax,(%rbx)
  4023bc:	48 b8 6e 61 62 6c 65 	movabs $0x6f7420656c62616e,%rax
  4023c3:	20 74 6f 
  4023c6:	48 89 43 08          	mov    %rax,0x8(%rbx)
  4023ca:	48 b8 20 63 6f 6e 6e 	movabs $0x7463656e6e6f6320,%rax
  4023d1:	65 63 74 
  4023d4:	48 89 43 10          	mov    %rax,0x10(%rbx)
  4023d8:	48 b8 20 74 6f 20 74 	movabs $0x20656874206f7420,%rax
  4023df:	68 65 20 
  4023e2:	48 89 43 18          	mov    %rax,0x18(%rbx)
  4023e6:	c7 43 20 73 65 72 76 	movl   $0x76726573,0x20(%rbx)
  4023ed:	66 c7 43 24 65 72    	movw   $0x7265,0x24(%rbx)
  4023f3:	c6 43 26 00          	movb   $0x0,0x26(%rbx)
  4023f7:	89 ef                	mov    %ebp,%edi
  4023f9:	e8 b2 e8 ff ff       	callq  400cb0 <close@plt>
  4023fe:	b8 ff ff ff ff       	mov    $0xffffffff,%eax
  402403:	e9 38 05 00 00       	jmpq   402940 <submitr+0x709>
  402408:	48 c7 c2 ff ff ff ff 	mov    $0xffffffffffffffff,%rdx
  40240f:	4c 89 ef             	mov    %r13,%rdi
  402412:	b8 00 00 00 00       	mov    $0x0,%eax
  402417:	48 89 d1             	mov    %rdx,%rcx
  40241a:	f2 ae                	repnz scas %es:(%rdi),%al
  40241c:	48 f7 d1             	not    %rcx
  40241f:	48 89 ce             	mov    %rcx,%rsi
  402422:	4c 89 ff             	mov    %r15,%rdi
  402425:	48 89 d1             	mov    %rdx,%rcx
  402428:	f2 ae                	repnz scas %es:(%rdi),%al
  40242a:	48 f7 d1             	not    %rcx
  40242d:	49 89 c8             	mov    %rcx,%r8
  402430:	4c 89 f7             	mov    %r14,%rdi
  402433:	48 89 d1             	mov    %rdx,%rcx
  402436:	f2 ae                	repnz scas %es:(%rdi),%al
  402438:	49 29 c8             	sub    %rcx,%r8
  40243b:	48 8b 7c 24 08       	mov    0x8(%rsp),%rdi
  402440:	48 89 d1             	mov    %rdx,%rcx
  402443:	f2 ae                	repnz scas %es:(%rdi),%al
  402445:	49 29 c8             	sub    %rcx,%r8
  402448:	48 8d 44 76 fd       	lea    -0x3(%rsi,%rsi,2),%rax
  40244d:	49 8d 44 00 7b       	lea    0x7b(%r8,%rax,1),%rax
  402452:	48 3d 00 20 00 00    	cmp    $0x2000,%rax
  402458:	76 72                	jbe    4024cc <submitr+0x295>
  40245a:	48 b8 45 72 72 6f 72 	movabs $0x52203a726f727245,%rax
  402461:	3a 20 52 
  402464:	48 89 03             	mov    %rax,(%rbx)
  402467:	48 b8 65 73 75 6c 74 	movabs $0x747320746c757365,%rax
  40246e:	20 73 74 
  402471:	48 89 43 08          	mov    %rax,0x8(%rbx)
  402475:	48 b8 72 69 6e 67 20 	movabs $0x6f6f7420676e6972,%rax
  40247c:	74 6f 6f 
  40247f:	48 89 43 10          	mov    %rax,0x10(%rbx)
  402483:	48 b8 20 6c 61 72 67 	movabs $0x202e656772616c20,%rax
  40248a:	65 2e 20 
  40248d:	48 89 43 18          	mov    %rax,0x18(%rbx)
  402491:	48 b8 49 6e 63 72 65 	movabs $0x6573616572636e49,%rax
  402498:	61 73 65 
  40249b:	48 89 43 20          	mov    %rax,0x20(%rbx)
  40249f:	48 b8 20 53 55 42 4d 	movabs $0x5254494d42555320,%rax
  4024a6:	49 54 52 
  4024a9:	48 89 43 28          	mov    %rax,0x28(%rbx)
  4024ad:	48 b8 5f 4d 41 58 42 	movabs $0x46554258414d5f,%rax
  4024b4:	55 46 00 
  4024b7:	48 89 43 30          	mov    %rax,0x30(%rbx)
  4024bb:	89 ef                	mov    %ebp,%edi
  4024bd:	e8 ee e7 ff ff       	callq  400cb0 <close@plt>
  4024c2:	b8 ff ff ff ff       	mov    $0xffffffff,%eax
  4024c7:	e9 74 04 00 00       	jmpq   402940 <submitr+0x709>
  4024cc:	48 8d b4 24 20 40 00 	lea    0x4020(%rsp),%rsi
  4024d3:	00 
  4024d4:	b9 00 04 00 00       	mov    $0x400,%ecx
  4024d9:	b8 00 00 00 00       	mov    $0x0,%eax
  4024de:	48 89 f7             	mov    %rsi,%rdi
  4024e1:	f3 48 ab             	rep stos %rax,%es:(%rdi)
  4024e4:	4c 89 ef             	mov    %r13,%rdi
  4024e7:	e8 0f fb ff ff       	callq  401ffb <urlencode>
  4024ec:	85 c0                	test   %eax,%eax
  4024ee:	0f 89 8a 00 00 00    	jns    40257e <submitr+0x347>
  4024f4:	48 b8 45 72 72 6f 72 	movabs $0x52203a726f727245,%rax
  4024fb:	3a 20 52 
  4024fe:	48 89 03             	mov    %rax,(%rbx)
  402501:	48 b8 65 73 75 6c 74 	movabs $0x747320746c757365,%rax
  402508:	20 73 74 
  40250b:	48 89 43 08          	mov    %rax,0x8(%rbx)
  40250f:	48 b8 72 69 6e 67 20 	movabs $0x6e6f6320676e6972,%rax
  402516:	63 6f 6e 
  402519:	48 89 43 10          	mov    %rax,0x10(%rbx)
  40251d:	48 b8 74 61 69 6e 73 	movabs $0x6e6120736e696174,%rax
  402524:	20 61 6e 
  402527:	48 89 43 18          	mov    %rax,0x18(%rbx)
  40252b:	48 b8 20 69 6c 6c 65 	movabs $0x6c6167656c6c6920,%rax
  402532:	67 61 6c 
  402535:	48 89 43 20          	mov    %rax,0x20(%rbx)
  402539:	48 b8 20 6f 72 20 75 	movabs $0x72706e7520726f20,%rax
  402540:	6e 70 72 
  402543:	48 89 43 28          	mov    %rax,0x28(%rbx)
  402547:	48 b8 69 6e 74 61 62 	movabs $0x20656c6261746e69,%rax
  40254e:	6c 65 20 
  402551:	48 89 43 30          	mov    %rax,0x30(%rbx)
  402555:	48 b8 63 68 61 72 61 	movabs $0x6574636172616863,%rax
  40255c:	63 74 65 
  40255f:	48 89 43 38          	mov    %rax,0x38(%rbx)
  402563:	66 c7 43 40 72 2e    	movw   $0x2e72,0x40(%rbx)
  402569:	c6 43 42 00          	movb   $0x0,0x42(%rbx)
  40256d:	89 ef                	mov    %ebp,%edi
  40256f:	e8 3c e7 ff ff       	callq  400cb0 <close@plt>
  402574:	b8 ff ff ff ff       	mov    $0xffffffff,%eax
  402579:	e9 c2 03 00 00       	jmpq   402940 <submitr+0x709>
  40257e:	4d 89 e1             	mov    %r12,%r9
  402581:	4c 8d 84 24 20 40 00 	lea    0x4020(%rsp),%r8
  402588:	00 
  402589:	4c 89 f9             	mov    %r15,%rcx
  40258c:	4c 89 f2             	mov    %r14,%rdx
  40258f:	be 18 34 40 00       	mov    $0x403418,%esi
  402594:	48 8d bc 24 20 60 00 	lea    0x6020(%rsp),%rdi
  40259b:	00 
  40259c:	b8 00 00 00 00       	mov    $0x0,%eax
  4025a1:	e8 3a e8 ff ff       	callq  400de0 <sprintf@plt>
  4025a6:	48 8d bc 24 20 60 00 	lea    0x6020(%rsp),%rdi
  4025ad:	00 
  4025ae:	b8 00 00 00 00       	mov    $0x0,%eax
  4025b3:	48 c7 c1 ff ff ff ff 	mov    $0xffffffffffffffff,%rcx
  4025ba:	f2 ae                	repnz scas %es:(%rdi),%al
  4025bc:	48 f7 d1             	not    %rcx
  4025bf:	48 8d 51 ff          	lea    -0x1(%rcx),%rdx
  4025c3:	48 8d b4 24 20 60 00 	lea    0x6020(%rsp),%rsi
  4025ca:	00 
  4025cb:	89 ef                	mov    %ebp,%edi
  4025cd:	e8 ff fa ff ff       	callq  4020d1 <rio_writen>
  4025d2:	48 85 c0             	test   %rax,%rax
  4025d5:	79 6e                	jns    402645 <submitr+0x40e>
  4025d7:	48 b8 45 72 72 6f 72 	movabs $0x43203a726f727245,%rax
  4025de:	3a 20 43 
  4025e1:	48 89 03             	mov    %rax,(%rbx)
  4025e4:	48 b8 6c 69 65 6e 74 	movabs $0x6e7520746e65696c,%rax
  4025eb:	20 75 6e 
  4025ee:	48 89 43 08          	mov    %rax,0x8(%rbx)
  4025f2:	48 b8 61 62 6c 65 20 	movabs $0x206f7420656c6261,%rax
  4025f9:	74 6f 20 
  4025fc:	48 89 43 10          	mov    %rax,0x10(%rbx)
  402600:	48 b8 77 72 69 74 65 	movabs $0x6f74206574697277,%rax
  402607:	20 74 6f 
  40260a:	48 89 43 18          	mov    %rax,0x18(%rbx)
  40260e:	48 b8 20 74 68 65 20 	movabs $0x7365722065687420,%rax
  402615:	72 65 73 
  402618:	48 89 43 20          	mov    %rax,0x20(%rbx)
  40261c:	48 b8 75 6c 74 20 73 	movabs $0x7672657320746c75,%rax
  402623:	65 72 76 
  402626:	48 89 43 28          	mov    %rax,0x28(%rbx)
  40262a:	66 c7 43 30 65 72    	movw   $0x7265,0x30(%rbx)
  402630:	c6 43 32 00          	movb   $0x0,0x32(%rbx)
  402634:	89 ef                	mov    %ebp,%edi
  402636:	e8 75 e6 ff ff       	callq  400cb0 <close@plt>
  40263b:	b8 ff ff ff ff       	mov    $0xffffffff,%eax
  402640:	e9 fb 02 00 00       	jmpq   402940 <submitr+0x709>
  402645:	89 ee                	mov    %ebp,%esi
  402647:	48 8d bc 24 20 80 00 	lea    0x8020(%rsp),%rdi
  40264e:	00 
  40264f:	e8 6c f9 ff ff       	callq  401fc0 <rio_readinitb>
  402654:	ba 00 20 00 00       	mov    $0x2000,%edx
  402659:	48 8d b4 24 20 60 00 	lea    0x6020(%rsp),%rsi
  402660:	00 
  402661:	48 8d bc 24 20 80 00 	lea    0x8020(%rsp),%rdi
  402668:	00 
  402669:	e8 46 fb ff ff       	callq  4021b4 <rio_readlineb>
  40266e:	48 85 c0             	test   %rax,%rax
  402671:	7f 7d                	jg     4026f0 <submitr+0x4b9>
  402673:	48 b8 45 72 72 6f 72 	movabs $0x43203a726f727245,%rax
  40267a:	3a 20 43 
  40267d:	48 89 03             	mov    %rax,(%rbx)
  402680:	48 b8 6c 69 65 6e 74 	movabs $0x6e7520746e65696c,%rax
  402687:	20 75 6e 
  40268a:	48 89 43 08          	mov    %rax,0x8(%rbx)
  40268e:	48 b8 61 62 6c 65 20 	movabs $0x206f7420656c6261,%rax
  402695:	74 6f 20 
  402698:	48 89 43 10          	mov    %rax,0x10(%rbx)
  40269c:	48 b8 72 65 61 64 20 	movabs $0x7269662064616572,%rax
  4026a3:	66 69 72 
  4026a6:	48 89 43 18          	mov    %rax,0x18(%rbx)
  4026aa:	48 b8 73 74 20 68 65 	movabs $0x6564616568207473,%rax
  4026b1:	61 64 65 
  4026b4:	48 89 43 20          	mov    %rax,0x20(%rbx)
  4026b8:	48 b8 72 20 66 72 6f 	movabs $0x72206d6f72662072,%rax
  4026bf:	6d 20 72 
  4026c2:	48 89 43 28          	mov    %rax,0x28(%rbx)
  4026c6:	48 b8 65 73 75 6c 74 	movabs $0x657320746c757365,%rax
  4026cd:	20 73 65 
  4026d0:	48 89 43 30          	mov    %rax,0x30(%rbx)
  4026d4:	c7 43 38 72 76 65 72 	movl   $0x72657672,0x38(%rbx)
  4026db:	c6 43 3c 00          	movb   $0x0,0x3c(%rbx)
  4026df:	89 ef                	mov    %ebp,%edi
  4026e1:	e8 ca e5 ff ff       	callq  400cb0 <close@plt>
  4026e6:	b8 ff ff ff ff       	mov    $0xffffffff,%eax
  4026eb:	e9 50 02 00 00       	jmpq   402940 <submitr+0x709>
  4026f0:	4c 8d 44 24 10       	lea    0x10(%rsp),%r8
  4026f5:	48 8d 8c 24 1c 20 00 	lea    0x201c(%rsp),%rcx
  4026fc:	00 
  4026fd:	48 8d 94 24 20 20 00 	lea    0x2020(%rsp),%rdx
  402704:	00 
  402705:	be 8f 34 40 00       	mov    $0x40348f,%esi
  40270a:	48 8d bc 24 20 60 00 	lea    0x6020(%rsp),%rdi
  402711:	00 
  402712:	b8 00 00 00 00       	mov    $0x0,%eax
  402717:	e8 54 e6 ff ff       	callq  400d70 <__isoc99_sscanf@plt>
  40271c:	e9 98 00 00 00       	jmpq   4027b9 <submitr+0x582>
  402721:	ba 00 20 00 00       	mov    $0x2000,%edx
  402726:	48 8d b4 24 20 60 00 	lea    0x6020(%rsp),%rsi
  40272d:	00 
  40272e:	48 8d bc 24 20 80 00 	lea    0x8020(%rsp),%rdi
  402735:	00 
  402736:	e8 79 fa ff ff       	callq  4021b4 <rio_readlineb>
  40273b:	48 85 c0             	test   %rax,%rax
  40273e:	7f 79                	jg     4027b9 <submitr+0x582>
  402740:	48 b8 45 72 72 6f 72 	movabs $0x43203a726f727245,%rax
  402747:	3a 20 43 
  40274a:	48 89 03             	mov    %rax,(%rbx)
  40274d:	48 b8 6c 69 65 6e 74 	movabs $0x6e7520746e65696c,%rax
  402754:	20 75 6e 
  402757:	48 89 43 08          	mov    %rax,0x8(%rbx)
  40275b:	48 b8 61 62 6c 65 20 	movabs $0x206f7420656c6261,%rax
  402762:	74 6f 20 
  402765:	48 89 43 10          	mov    %rax,0x10(%rbx)
  402769:	48 b8 72 65 61 64 20 	movabs $0x6165682064616572,%rax
  402770:	68 65 61 
  402773:	48 89 43 18          	mov    %rax,0x18(%rbx)
  402777:	48 b8 64 65 72 73 20 	movabs $0x6f72662073726564,%rax
  40277e:	66 72 6f 
  402781:	48 89 43 20          	mov    %rax,0x20(%rbx)
  402785:	48 b8 6d 20 74 68 65 	movabs $0x657220656874206d,%rax
  40278c:	20 72 65 
  40278f:	48 89 43 28          	mov    %rax,0x28(%rbx)
  402793:	48 b8 73 75 6c 74 20 	movabs $0x72657320746c7573,%rax
  40279a:	73 65 72 
  40279d:	48 89 43 30          	mov    %rax,0x30(%rbx)
  4027a1:	c7 43 38 76 65 72 00 	movl   $0x726576,0x38(%rbx)
  4027a8:	89 ef                	mov    %ebp,%edi
  4027aa:	e8 01 e5 ff ff       	callq  400cb0 <close@plt>
  4027af:	b8 ff ff ff ff       	mov    $0xffffffff,%eax
  4027b4:	e9 87 01 00 00       	jmpq   402940 <submitr+0x709>
  4027b9:	0f b6 84 24 20 60 00 	movzbl 0x6020(%rsp),%eax
  4027c0:	00 
  4027c1:	83 e8 0d             	sub    $0xd,%eax
  4027c4:	75 15                	jne    4027db <submitr+0x5a4>
  4027c6:	0f b6 84 24 21 60 00 	movzbl 0x6021(%rsp),%eax
  4027cd:	00 
  4027ce:	83 e8 0a             	sub    $0xa,%eax
  4027d1:	75 08                	jne    4027db <submitr+0x5a4>
  4027d3:	0f b6 84 24 22 60 00 	movzbl 0x6022(%rsp),%eax
  4027da:	00 
  4027db:	85 c0                	test   %eax,%eax
  4027dd:	0f 85 3e ff ff ff    	jne    402721 <submitr+0x4ea>
  4027e3:	ba 00 20 00 00       	mov    $0x2000,%edx
  4027e8:	48 8d b4 24 20 60 00 	lea    0x6020(%rsp),%rsi
  4027ef:	00 
  4027f0:	48 8d bc 24 20 80 00 	lea    0x8020(%rsp),%rdi
  4027f7:	00 
  4027f8:	e8 b7 f9 ff ff       	callq  4021b4 <rio_readlineb>
  4027fd:	48 85 c0             	test   %rax,%rax
  402800:	0f 8f 83 00 00 00    	jg     402889 <submitr+0x652>
  402806:	48 b8 45 72 72 6f 72 	movabs $0x43203a726f727245,%rax
  40280d:	3a 20 43 
  402810:	48 89 03             	mov    %rax,(%rbx)
  402813:	48 b8 6c 69 65 6e 74 	movabs $0x6e7520746e65696c,%rax
  40281a:	20 75 6e 
  40281d:	48 89 43 08          	mov    %rax,0x8(%rbx)
  402821:	48 b8 61 62 6c 65 20 	movabs $0x206f7420656c6261,%rax
  402828:	74 6f 20 
  40282b:	48 89 43 10          	mov    %rax,0x10(%rbx)
  40282f:	48 b8 72 65 61 64 20 	movabs $0x6174732064616572,%rax
  402836:	73 74 61 
  402839:	48 89 43 18          	mov    %rax,0x18(%rbx)
  40283d:	48 b8 74 75 73 20 6d 	movabs $0x7373656d20737574,%rax
  402844:	65 73 73 
  402847:	48 89 43 20          	mov    %rax,0x20(%rbx)
  40284b:	48 b8 61 67 65 20 66 	movabs $0x6d6f726620656761,%rax
  402852:	72 6f 6d 
  402855:	48 89 43 28          	mov    %rax,0x28(%rbx)
  402859:	48 b8 20 72 65 73 75 	movabs $0x20746c7573657220,%rax
  402860:	6c 74 20 
  402863:	48 89 43 30          	mov    %rax,0x30(%rbx)
  402867:	c7 43 38 73 65 72 76 	movl   $0x76726573,0x38(%rbx)
  40286e:	66 c7 43 3c 65 72    	movw   $0x7265,0x3c(%rbx)
  402874:	c6 43 3e 00          	movb   $0x0,0x3e(%rbx)
  402878:	89 ef                	mov    %ebp,%edi
  40287a:	e8 31 e4 ff ff       	callq  400cb0 <close@plt>
  40287f:	b8 ff ff ff ff       	mov    $0xffffffff,%eax
  402884:	e9 b7 00 00 00       	jmpq   402940 <submitr+0x709>
  402889:	8b 94 24 1c 20 00 00 	mov    0x201c(%rsp),%edx
  402890:	81 fa c8 00 00 00    	cmp    $0xc8,%edx
  402896:	74 28                	je     4028c0 <submitr+0x689>
  402898:	48 8d 4c 24 10       	lea    0x10(%rsp),%rcx
  40289d:	be 58 34 40 00       	mov    $0x403458,%esi
  4028a2:	48 89 df             	mov    %rbx,%rdi
  4028a5:	b8 00 00 00 00       	mov    $0x0,%eax
  4028aa:	e8 31 e5 ff ff       	callq  400de0 <sprintf@plt>
  4028af:	89 ef                	mov    %ebp,%edi
  4028b1:	e8 fa e3 ff ff       	callq  400cb0 <close@plt>
  4028b6:	b8 ff ff ff ff       	mov    $0xffffffff,%eax
  4028bb:	e9 80 00 00 00       	jmpq   402940 <submitr+0x709>
  4028c0:	48 8d b4 24 20 60 00 	lea    0x6020(%rsp),%rsi
  4028c7:	00 
  4028c8:	48 89 df             	mov    %rbx,%rdi
  4028cb:	e8 70 e3 ff ff       	callq  400c40 <strcpy@plt>
  4028d0:	89 ef                	mov    %ebp,%edi
  4028d2:	e8 d9 e3 ff ff       	callq  400cb0 <close@plt>
  4028d7:	0f b6 03             	movzbl (%rbx),%eax
  4028da:	83 e8 4f             	sub    $0x4f,%eax
  4028dd:	75 18                	jne    4028f7 <submitr+0x6c0>
  4028df:	0f b6 53 01          	movzbl 0x1(%rbx),%edx
  4028e3:	83 ea 4b             	sub    $0x4b,%edx
  4028e6:	75 11                	jne    4028f9 <submitr+0x6c2>
  4028e8:	0f b6 53 02          	movzbl 0x2(%rbx),%edx
  4028ec:	83 ea 0a             	sub    $0xa,%edx
  4028ef:	75 08                	jne    4028f9 <submitr+0x6c2>
  4028f1:	0f b6 53 03          	movzbl 0x3(%rbx),%edx
  4028f5:	eb 02                	jmp    4028f9 <submitr+0x6c2>
  4028f7:	89 c2                	mov    %eax,%edx
  4028f9:	85 d2                	test   %edx,%edx
  4028fb:	74 30                	je     40292d <submitr+0x6f6>
  4028fd:	bf a0 34 40 00       	mov    $0x4034a0,%edi
  402902:	b9 05 00 00 00       	mov    $0x5,%ecx
  402907:	48 89 de             	mov    %rbx,%rsi
  40290a:	f3 a6                	repz cmpsb %es:(%rdi),%ds:(%rsi)
  40290c:	0f 97 c1             	seta   %cl
  40290f:	0f 92 c2             	setb   %dl
  402912:	38 d1                	cmp    %dl,%cl
  402914:	74 1e                	je     402934 <submitr+0x6fd>
  402916:	85 c0                	test   %eax,%eax
  402918:	75 0d                	jne    402927 <submitr+0x6f0>
  40291a:	0f b6 43 01          	movzbl 0x1(%rbx),%eax
  40291e:	83 e8 4b             	sub    $0x4b,%eax
  402921:	75 04                	jne    402927 <submitr+0x6f0>
  402923:	0f b6 43 02          	movzbl 0x2(%rbx),%eax
  402927:	85 c0                	test   %eax,%eax
  402929:	75 10                	jne    40293b <submitr+0x704>
  40292b:	eb 13                	jmp    402940 <submitr+0x709>
  40292d:	b8 00 00 00 00       	mov    $0x0,%eax
  402932:	eb 0c                	jmp    402940 <submitr+0x709>
  402934:	b8 00 00 00 00       	mov    $0x0,%eax
  402939:	eb 05                	jmp    402940 <submitr+0x709>
  40293b:	b8 ff ff ff ff       	mov    $0xffffffff,%eax
  402940:	48 81 c4 48 a0 00 00 	add    $0xa048,%rsp
  402947:	5b                   	pop    %rbx
  402948:	5d                   	pop    %rbp
  402949:	41 5c                	pop    %r12
  40294b:	41 5d                	pop    %r13
  40294d:	41 5e                	pop    %r14
  40294f:	41 5f                	pop    %r15
  402951:	c3                   	retq   

0000000000402952 <init_timeout>:
  402952:	53                   	push   %rbx
  402953:	89 fb                	mov    %edi,%ebx
  402955:	85 ff                	test   %edi,%edi
  402957:	74 1f                	je     402978 <init_timeout+0x26>
  402959:	85 ff                	test   %edi,%edi
  40295b:	79 05                	jns    402962 <init_timeout+0x10>
  40295d:	bb 00 00 00 00       	mov    $0x0,%ebx
  402962:	be d2 1f 40 00       	mov    $0x401fd2,%esi
  402967:	bf 0e 00 00 00       	mov    $0xe,%edi
  40296c:	e8 6f e3 ff ff       	callq  400ce0 <signal@plt>
  402971:	89 df                	mov    %ebx,%edi
  402973:	e8 28 e3 ff ff       	callq  400ca0 <alarm@plt>
  402978:	5b                   	pop    %rbx
  402979:	c3                   	retq   

000000000040297a <init_driver>:
  40297a:	55                   	push   %rbp
  40297b:	53                   	push   %rbx
  40297c:	48 83 ec 18          	sub    $0x18,%rsp
  402980:	48 89 fd             	mov    %rdi,%rbp
  402983:	be 01 00 00 00       	mov    $0x1,%esi
  402988:	bf 0d 00 00 00       	mov    $0xd,%edi
  40298d:	e8 4e e3 ff ff       	callq  400ce0 <signal@plt>
  402992:	be 01 00 00 00       	mov    $0x1,%esi
  402997:	bf 1d 00 00 00       	mov    $0x1d,%edi
  40299c:	e8 3f e3 ff ff       	callq  400ce0 <signal@plt>
  4029a1:	be 01 00 00 00       	mov    $0x1,%esi
  4029a6:	bf 1d 00 00 00       	mov    $0x1d,%edi
  4029ab:	e8 30 e3 ff ff       	callq  400ce0 <signal@plt>
  4029b0:	ba 00 00 00 00       	mov    $0x0,%edx
  4029b5:	be 01 00 00 00       	mov    $0x1,%esi
  4029ba:	bf 02 00 00 00       	mov    $0x2,%edi
  4029bf:	e8 4c e4 ff ff       	callq  400e10 <socket@plt>
  4029c4:	89 c3                	mov    %eax,%ebx
  4029c6:	85 c0                	test   %eax,%eax
  4029c8:	79 4f                	jns    402a19 <init_driver+0x9f>
  4029ca:	48 b8 45 72 72 6f 72 	movabs $0x43203a726f727245,%rax
  4029d1:	3a 20 43 
  4029d4:	48 89 45 00          	mov    %rax,0x0(%rbp)
  4029d8:	48 b8 6c 69 65 6e 74 	movabs $0x6e7520746e65696c,%rax
  4029df:	20 75 6e 
  4029e2:	48 89 45 08          	mov    %rax,0x8(%rbp)
  4029e6:	48 b8 61 62 6c 65 20 	movabs $0x206f7420656c6261,%rax
  4029ed:	74 6f 20 
  4029f0:	48 89 45 10          	mov    %rax,0x10(%rbp)
  4029f4:	48 b8 63 72 65 61 74 	movabs $0x7320657461657263,%rax
  4029fb:	65 20 73 
  4029fe:	48 89 45 18          	mov    %rax,0x18(%rbp)
  402a02:	c7 45 20 6f 63 6b 65 	movl   $0x656b636f,0x20(%rbp)
  402a09:	66 c7 45 24 74 00    	movw   $0x74,0x24(%rbp)
  402a0f:	b8 ff ff ff ff       	mov    $0xffffffff,%eax
  402a14:	e9 23 01 00 00       	jmpq   402b3c <init_driver+0x1c2>
  402a19:	bf c4 2f 40 00       	mov    $0x402fc4,%edi
  402a1e:	e8 cd e2 ff ff       	callq  400cf0 <gethostbyname@plt>
  402a23:	48 85 c0             	test   %rax,%rax
  402a26:	75 68                	jne    402a90 <init_driver+0x116>
  402a28:	48 b8 45 72 72 6f 72 	movabs $0x44203a726f727245,%rax
  402a2f:	3a 20 44 
  402a32:	48 89 45 00          	mov    %rax,0x0(%rbp)
  402a36:	48 b8 4e 53 20 69 73 	movabs $0x6e7520736920534e,%rax
  402a3d:	20 75 6e 
  402a40:	48 89 45 08          	mov    %rax,0x8(%rbp)
  402a44:	48 b8 61 62 6c 65 20 	movabs $0x206f7420656c6261,%rax
  402a4b:	74 6f 20 
  402a4e:	48 89 45 10          	mov    %rax,0x10(%rbp)
  402a52:	48 b8 72 65 73 6f 6c 	movabs $0x2065766c6f736572,%rax
  402a59:	76 65 20 
  402a5c:	48 89 45 18          	mov    %rax,0x18(%rbp)
  402a60:	48 b8 73 65 72 76 65 	movabs $0x6120726576726573,%rax
  402a67:	72 20 61 
  402a6a:	48 89 45 20          	mov    %rax,0x20(%rbp)
  402a6e:	c7 45 28 64 64 72 65 	movl   $0x65726464,0x28(%rbp)
  402a75:	66 c7 45 2c 73 73    	movw   $0x7373,0x2c(%rbp)
  402a7b:	c6 45 2e 00          	movb   $0x0,0x2e(%rbp)
  402a7f:	89 df                	mov    %ebx,%edi
  402a81:	e8 2a e2 ff ff       	callq  400cb0 <close@plt>
  402a86:	b8 ff ff ff ff       	mov    $0xffffffff,%eax
  402a8b:	e9 ac 00 00 00       	jmpq   402b3c <init_driver+0x1c2>
  402a90:	48 c7 04 24 00 00 00 	movq   $0x0,(%rsp)
  402a97:	00 
  402a98:	48 c7 44 24 08 00 00 	movq   $0x0,0x8(%rsp)
  402a9f:	00 00 
  402aa1:	66 c7 04 24 02 00    	movw   $0x2,(%rsp)
  402aa7:	48 8b 48 18          	mov    0x18(%rax),%rcx
  402aab:	48 63 50 14          	movslq 0x14(%rax),%rdx
  402aaf:	48 8d 74 24 04       	lea    0x4(%rsp),%rsi
  402ab4:	48 8b 39             	mov    (%rcx),%rdi
  402ab7:	e8 d4 e2 ff ff       	callq  400d90 <bcopy@plt>
  402abc:	66 c7 44 24 02 47 26 	movw   $0x2647,0x2(%rsp)
  402ac3:	ba 10 00 00 00       	mov    $0x10,%edx
  402ac8:	48 89 e6             	mov    %rsp,%rsi
  402acb:	89 df                	mov    %ebx,%edi
  402acd:	e8 2e e3 ff ff       	callq  400e00 <connect@plt>
  402ad2:	85 c0                	test   %eax,%eax
  402ad4:	79 50                	jns    402b26 <init_driver+0x1ac>
  402ad6:	48 b8 45 72 72 6f 72 	movabs $0x55203a726f727245,%rax
  402add:	3a 20 55 
  402ae0:	48 89 45 00          	mov    %rax,0x0(%rbp)
  402ae4:	48 b8 6e 61 62 6c 65 	movabs $0x6f7420656c62616e,%rax
  402aeb:	20 74 6f 
  402aee:	48 89 45 08          	mov    %rax,0x8(%rbp)
  402af2:	48 b8 20 63 6f 6e 6e 	movabs $0x7463656e6e6f6320,%rax
  402af9:	65 63 74 
  402afc:	48 89 45 10          	mov    %rax,0x10(%rbp)
  402b00:	48 b8 20 74 6f 20 73 	movabs $0x76726573206f7420,%rax
  402b07:	65 72 76 
  402b0a:	48 89 45 18          	mov    %rax,0x18(%rbp)
  402b0e:	66 c7 45 20 65 72    	movw   $0x7265,0x20(%rbp)
  402b14:	c6 45 22 00          	movb   $0x0,0x22(%rbp)
  402b18:	89 df                	mov    %ebx,%edi
  402b1a:	e8 91 e1 ff ff       	callq  400cb0 <close@plt>
  402b1f:	b8 ff ff ff ff       	mov    $0xffffffff,%eax
  402b24:	eb 16                	jmp    402b3c <init_driver+0x1c2>
  402b26:	89 df                	mov    %ebx,%edi
  402b28:	e8 83 e1 ff ff       	callq  400cb0 <close@plt>
  402b2d:	66 c7 45 00 4f 4b    	movw   $0x4b4f,0x0(%rbp)
  402b33:	c6 45 02 00          	movb   $0x0,0x2(%rbp)
  402b37:	b8 00 00 00 00       	mov    $0x0,%eax
  402b3c:	48 83 c4 18          	add    $0x18,%rsp
  402b40:	5b                   	pop    %rbx
  402b41:	5d                   	pop    %rbp
  402b42:	c3                   	retq   

0000000000402b43 <driver_post>:
  402b43:	53                   	push   %rbx
  402b44:	48 83 ec 10          	sub    $0x10,%rsp
  402b48:	4c 89 cb             	mov    %r9,%rbx
  402b4b:	45 85 c0             	test   %r8d,%r8d
  402b4e:	74 22                	je     402b72 <driver_post+0x2f>
  402b50:	48 89 ce             	mov    %rcx,%rsi
  402b53:	bf a5 34 40 00       	mov    $0x4034a5,%edi
  402b58:	b8 00 00 00 00       	mov    $0x0,%eax
  402b5d:	e8 1e e1 ff ff       	callq  400c80 <printf@plt>
  402b62:	66 c7 03 4f 4b       	movw   $0x4b4f,(%rbx)
  402b67:	c6 43 02 00          	movb   $0x0,0x2(%rbx)
  402b6b:	b8 00 00 00 00       	mov    $0x0,%eax
  402b70:	eb 39                	jmp    402bab <driver_post+0x68>
  402b72:	48 85 ff             	test   %rdi,%rdi
  402b75:	74 26                	je     402b9d <driver_post+0x5a>
  402b77:	80 3f 00             	cmpb   $0x0,(%rdi)
  402b7a:	74 21                	je     402b9d <driver_post+0x5a>
  402b7c:	4c 89 0c 24          	mov    %r9,(%rsp)
  402b80:	49 89 c9             	mov    %rcx,%r9
  402b83:	49 89 d0             	mov    %rdx,%r8
  402b86:	48 89 f9             	mov    %rdi,%rcx
  402b89:	48 89 f2             	mov    %rsi,%rdx
  402b8c:	be 26 47 00 00       	mov    $0x4726,%esi
  402b91:	bf c4 2f 40 00       	mov    $0x402fc4,%edi
  402b96:	e8 9c f6 ff ff       	callq  402237 <submitr>
  402b9b:	eb 0e                	jmp    402bab <driver_post+0x68>
  402b9d:	66 c7 03 4f 4b       	movw   $0x4b4f,(%rbx)
  402ba2:	c6 43 02 00          	movb   $0x0,0x2(%rbx)
  402ba6:	b8 00 00 00 00       	mov    $0x0,%eax
  402bab:	48 83 c4 10          	add    $0x10,%rsp
  402baf:	5b                   	pop    %rbx
  402bb0:	c3                   	retq   
  402bb1:	0f 1f 00             	nopl   (%rax)

0000000000402bb4 <check>:
  402bb4:	89 f8                	mov    %edi,%eax
  402bb6:	c1 e8 1c             	shr    $0x1c,%eax
  402bb9:	85 c0                	test   %eax,%eax
  402bbb:	74 1d                	je     402bda <check+0x26>
  402bbd:	b9 00 00 00 00       	mov    $0x0,%ecx
  402bc2:	eb 0b                	jmp    402bcf <check+0x1b>
  402bc4:	89 f8                	mov    %edi,%eax
  402bc6:	d3 e8                	shr    %cl,%eax
  402bc8:	3c 0a                	cmp    $0xa,%al
  402bca:	74 14                	je     402be0 <check+0x2c>
  402bcc:	83 c1 08             	add    $0x8,%ecx
  402bcf:	83 f9 1f             	cmp    $0x1f,%ecx
  402bd2:	7e f0                	jle    402bc4 <check+0x10>
  402bd4:	b8 01 00 00 00       	mov    $0x1,%eax
  402bd9:	c3                   	retq   
  402bda:	b8 00 00 00 00       	mov    $0x0,%eax
  402bdf:	c3                   	retq   
  402be0:	b8 00 00 00 00       	mov    $0x0,%eax
  402be5:	c3                   	retq   

0000000000402be6 <gencookie>:
  402be6:	53                   	push   %rbx
  402be7:	83 c7 01             	add    $0x1,%edi
  402bea:	e8 31 e0 ff ff       	callq  400c20 <srandom@plt>
  402bef:	e8 5c e1 ff ff       	callq  400d50 <random@plt>
  402bf4:	89 c3                	mov    %eax,%ebx
  402bf6:	89 c7                	mov    %eax,%edi
  402bf8:	e8 b7 ff ff ff       	callq  402bb4 <check>
  402bfd:	85 c0                	test   %eax,%eax
  402bff:	74 ee                	je     402bef <gencookie+0x9>
  402c01:	89 d8                	mov    %ebx,%eax
  402c03:	5b                   	pop    %rbx
  402c04:	c3                   	retq   
  402c05:	66 2e 0f 1f 84 00 00 	nopw   %cs:0x0(%rax,%rax,1)
  402c0c:	00 00 00 
  402c0f:	90                   	nop

0000000000402c10 <__libc_csu_init>:
  402c10:	41 57                	push   %r15
  402c12:	41 89 ff             	mov    %edi,%r15d
  402c15:	41 56                	push   %r14
  402c17:	49 89 f6             	mov    %rsi,%r14
  402c1a:	41 55                	push   %r13
  402c1c:	49 89 d5             	mov    %rdx,%r13
  402c1f:	41 54                	push   %r12
  402c21:	4c 8d 25 e8 21 20 00 	lea    0x2021e8(%rip),%r12        # 604e10 <__frame_dummy_init_array_entry>
  402c28:	55                   	push   %rbp
  402c29:	48 8d 2d e8 21 20 00 	lea    0x2021e8(%rip),%rbp        # 604e18 <__init_array_end>
  402c30:	53                   	push   %rbx
  402c31:	4c 29 e5             	sub    %r12,%rbp
  402c34:	31 db                	xor    %ebx,%ebx
  402c36:	48 c1 fd 03          	sar    $0x3,%rbp
  402c3a:	48 83 ec 08          	sub    $0x8,%rsp
  402c3e:	e8 85 df ff ff       	callq  400bc8 <_init>
  402c43:	48 85 ed             	test   %rbp,%rbp
  402c46:	74 1e                	je     402c66 <__libc_csu_init+0x56>
  402c48:	0f 1f 84 00 00 00 00 	nopl   0x0(%rax,%rax,1)
  402c4f:	00 
  402c50:	4c 89 ea             	mov    %r13,%rdx
  402c53:	4c 89 f6             	mov    %r14,%rsi
  402c56:	44 89 ff             	mov    %r15d,%edi
  402c59:	41 ff 14 dc          	callq  *(%r12,%rbx,8)
  402c5d:	48 83 c3 01          	add    $0x1,%rbx
  402c61:	48 39 eb             	cmp    %rbp,%rbx
  402c64:	75 ea                	jne    402c50 <__libc_csu_init+0x40>
  402c66:	48 83 c4 08          	add    $0x8,%rsp
  402c6a:	5b                   	pop    %rbx
  402c6b:	5d                   	pop    %rbp
  402c6c:	41 5c                	pop    %r12
  402c6e:	41 5d                	pop    %r13
  402c70:	41 5e                	pop    %r14
  402c72:	41 5f                	pop    %r15
  402c74:	c3                   	retq   
  402c75:	66 66 2e 0f 1f 84 00 	data32 nopw %cs:0x0(%rax,%rax,1)
  402c7c:	00 00 00 00 

0000000000402c80 <__libc_csu_fini>:
  402c80:	f3 c3                	repz retq 
  402c82:	66 90                	xchg   %ax,%ax

Disassembly of section .fini:

0000000000402c84 <_fini>:
  402c84:	48 83 ec 08          	sub    $0x8,%rsp
  402c88:	48 83 c4 08          	add    $0x8,%rsp
  402c8c:	c3                   	retq   
